(dp0
I0
(dp1
I21
(dp2
S'Epsilon_Greedy_0.4'
p3
(dp4
S'Absent'
p5
I22
sS'Present'
p6
I8
ssS'SoftMax_0.1'
p7
(dp8
g5
I21
sg6
I9
ssS'Epsilon_Greedy_0.1'
p9
(dp10
g5
I22
sg6
I8
ssS'Epsilon_Greedy_0.2'
p11
(dp12
g5
I22
sg6
I8
ssS'Epsilon_Greedy_0.3'
p13
(dp14
g5
I20
sg6
I10
ssS'SoftMax_1.0'
p15
(dp16
g5
I23
sg6
I7
ssS'SoftMax_0.4'
p17
(dp18
g5
I24
sg6
I6
ssS'SoftMax_0.2'
p19
(dp20
g5
I18
sg6
I12
ssS'UCB1'
p21
(dp22
g5
I29
sg6
I1
ssS'SoftMax_0.8'
p23
(dp24
g5
I21
sg6
I9
sssI22
(dp25
S'Epsilon_Greedy_0.4'
p26
(dp27
g5
I16
sg6
I14
ssS'SoftMax_0.1'
p28
(dp29
g5
I25
sg6
I5
ssS'Epsilon_Greedy_0.1'
p30
(dp31
g5
I24
sg6
I6
ssS'Epsilon_Greedy_0.2'
p32
(dp33
g5
I24
sg6
I6
ssS'Epsilon_Greedy_0.3'
p34
(dp35
g5
I24
sg6
I6
ssS'SoftMax_1.0'
p36
(dp37
g5
I25
sg6
I5
ssS'SoftMax_0.4'
p38
(dp39
g5
I23
sg6
I7
ssS'SoftMax_0.2'
p40
(dp41
g5
I12
sg6
I18
ssg21
(dp42
g5
I17
sg6
I13
ssS'SoftMax_0.8'
p43
(dp44
g5
I25
sg6
I5
sssI23
(dp45
S'Epsilon_Greedy_0.4'
p46
(dp47
g5
I20
sg6
I10
ssS'SoftMax_0.1'
p48
(dp49
g5
I26
sg6
I4
ssS'Epsilon_Greedy_0.1'
p50
(dp51
g5
I23
sg6
I7
ssS'Epsilon_Greedy_0.2'
p52
(dp53
g5
I16
sg6
I14
ssS'Epsilon_Greedy_0.3'
p54
(dp55
g5
I23
sg6
I7
ssS'SoftMax_1.0'
p56
(dp57
g5
I21
sg6
I9
ssS'SoftMax_0.4'
p58
(dp59
g5
I23
sg6
I7
ssS'SoftMax_0.2'
p60
(dp61
g5
I13
sg6
I17
ssg21
(dp62
g5
I0
sg6
I30
ssS'SoftMax_0.8'
p63
(dp64
g5
I23
sg6
I7
sssI24
(dp65
S'Epsilon_Greedy_0.4'
p66
(dp67
g5
I15
sg6
I15
ssS'SoftMax_0.1'
p68
(dp69
g5
I25
sg6
I5
ssS'Epsilon_Greedy_0.1'
p70
(dp71
g5
I26
sg6
I4
ssS'Epsilon_Greedy_0.2'
p72
(dp73
g5
I22
sg6
I8
ssS'Epsilon_Greedy_0.3'
p74
(dp75
g5
I18
sg6
I12
ssS'SoftMax_1.0'
p76
(dp77
g5
I26
sg6
I4
ssS'SoftMax_0.4'
p78
(dp79
g5
I22
sg6
I8
ssS'SoftMax_0.2'
p80
(dp81
g5
I18
sg6
I12
ssg21
(dp82
g5
I0
sg6
I30
ssS'SoftMax_0.8'
p83
(dp84
g5
I22
sg6
I8
sssI25
(dp85
S'Epsilon_Greedy_0.4'
p86
(dp87
g5
I21
sg6
I9
ssS'SoftMax_0.1'
p88
(dp89
g5
I21
sg6
I9
ssS'Epsilon_Greedy_0.1'
p90
(dp91
g5
I22
sg6
I8
ssS'Epsilon_Greedy_0.2'
p92
(dp93
g5
I23
sg6
I7
ssS'Epsilon_Greedy_0.3'
p94
(dp95
g5
I19
sg6
I11
ssS'SoftMax_1.0'
p96
(dp97
g5
I20
sg6
I10
ssS'SoftMax_0.4'
p98
(dp99
g5
I21
sg6
I9
ssS'SoftMax_0.2'
p100
(dp101
g5
I16
sg6
I14
ssg21
(dp102
g5
I0
sg6
I30
ssS'SoftMax_0.8'
p103
(dp104
g5
I27
sg6
I3
sssI26
(dp105
S'Epsilon_Greedy_0.4'
p106
(dp107
g5
I21
sg6
I9
ssS'SoftMax_0.1'
p108
(dp109
g5
I19
sg6
I11
ssS'Epsilon_Greedy_0.1'
p110
(dp111
g5
I25
sg6
I5
ssS'Epsilon_Greedy_0.2'
p112
(dp113
g5
I18
sg6
I12
ssS'Epsilon_Greedy_0.3'
p114
(dp115
g5
I22
sg6
I8
ssS'SoftMax_1.0'
p116
(dp117
g5
I18
sg6
I12
ssS'SoftMax_0.4'
p118
(dp119
g5
I20
sg6
I10
ssS'SoftMax_0.2'
p120
(dp121
g5
I19
sg6
I11
ssg21
(dp122
g5
I3
sg6
I27
ssS'SoftMax_0.8'
p123
(dp124
g5
I28
sg6
I2
sssI27
(dp125
S'Epsilon_Greedy_0.4'
p126
(dp127
g5
I18
sg6
I12
ssS'SoftMax_0.1'
p128
(dp129
g5
I20
sg6
I10
ssS'Epsilon_Greedy_0.1'
p130
(dp131
g5
I24
sg6
I6
ssS'Epsilon_Greedy_0.2'
p132
(dp133
g5
I21
sg6
I9
ssS'Epsilon_Greedy_0.3'
p134
(dp135
g5
I18
sg6
I12
ssS'SoftMax_1.0'
p136
(dp137
g5
I21
sg6
I9
ssS'SoftMax_0.4'
p138
(dp139
g5
I19
sg6
I11
ssS'SoftMax_0.2'
p140
(dp141
g5
I24
sg6
I6
ssg21
(dp142
g5
I14
sg6
I16
ssS'SoftMax_0.8'
p143
(dp144
g5
I22
sg6
I8
sssI28
(dp145
S'Epsilon_Greedy_0.4'
p146
(dp147
g5
I20
sg6
I10
ssS'SoftMax_0.1'
p148
(dp149
g5
I21
sg6
I9
ssS'Epsilon_Greedy_0.1'
p150
(dp151
g5
I26
sg6
I4
ssS'Epsilon_Greedy_0.2'
p152
(dp153
g5
I18
sg6
I12
ssS'Epsilon_Greedy_0.3'
p154
(dp155
g5
I18
sg6
I12
ssS'SoftMax_1.0'
p156
(dp157
g5
I20
sg6
I10
ssS'SoftMax_0.4'
p158
(dp159
g5
I20
sg6
I10
ssS'SoftMax_0.2'
p160
(dp161
g5
I24
sg6
I6
ssg21
(dp162
g5
I27
sg6
I3
ssS'SoftMax_0.8'
p163
(dp164
g5
I25
sg6
I5
sssI29
(dp165
S'Epsilon_Greedy_0.4'
p166
(dp167
g5
I18
sg6
I12
ssS'SoftMax_0.1'
p168
(dp169
g5
I18
sg6
I12
ssS'Epsilon_Greedy_0.1'
p170
(dp171
g5
I24
sg6
I6
ssS'Epsilon_Greedy_0.2'
p172
(dp173
g5
I21
sg6
I9
ssS'Epsilon_Greedy_0.3'
p174
(dp175
g5
I18
sg6
I12
ssS'SoftMax_1.0'
p176
(dp177
g5
I23
sg6
I7
ssS'SoftMax_0.4'
p178
(dp179
g5
I16
sg6
I14
ssS'SoftMax_0.2'
p180
(dp181
g5
I17
sg6
I13
ssg21
(dp182
g5
I29
sg6
I1
ssS'SoftMax_0.8'
p183
(dp184
g5
I23
sg6
I7
sssI30
(dp185
S'Epsilon_Greedy_0.4'
p186
(dp187
g5
I20
sg6
I10
ssS'SoftMax_0.1'
p188
(dp189
g5
I23
sg6
I7
ssS'Epsilon_Greedy_0.1'
p190
(dp191
g5
I23
sg6
I7
ssS'Epsilon_Greedy_0.2'
p192
(dp193
g5
I16
sg6
I14
ssS'Epsilon_Greedy_0.3'
p194
(dp195
g5
I18
sg6
I12
ssS'SoftMax_1.0'
p196
(dp197
g5
I21
sg6
I9
ssS'SoftMax_0.4'
p198
(dp199
g5
I25
sg6
I5
ssS'SoftMax_0.2'
p200
(dp201
g5
I22
sg6
I8
ssg21
(dp202
g5
I27
sg6
I3
ssS'SoftMax_0.8'
p203
(dp204
g5
I21
sg6
I9
sssI31
(dp205
S'Epsilon_Greedy_0.4'
p206
(dp207
g5
I17
sg6
I13
ssS'SoftMax_0.1'
p208
(dp209
g5
I22
sg6
I8
ssS'Epsilon_Greedy_0.1'
p210
(dp211
g5
I22
sg6
I8
ssS'Epsilon_Greedy_0.2'
p212
(dp213
g5
I26
sg6
I4
ssS'Epsilon_Greedy_0.3'
p214
(dp215
g5
I18
sg6
I12
ssS'SoftMax_1.0'
p216
(dp217
g5
I28
sg6
I2
ssS'SoftMax_0.4'
p218
(dp219
g5
I18
sg6
I12
ssS'SoftMax_0.2'
p220
(dp221
g5
I16
sg6
I14
ssg21
(dp222
g5
I30
sg6
I0
ssS'SoftMax_0.8'
p223
(dp224
g5
I20
sg6
I10
sssI32
(dp225
S'Epsilon_Greedy_0.4'
p226
(dp227
g5
I21
sg6
I9
ssS'SoftMax_0.1'
p228
(dp229
g5
I23
sg6
I7
ssS'Epsilon_Greedy_0.1'
p230
(dp231
g5
I25
sg6
I5
ssS'Epsilon_Greedy_0.2'
p232
(dp233
g5
I24
sg6
I6
ssS'Epsilon_Greedy_0.3'
p234
(dp235
g5
I21
sg6
I9
ssS'SoftMax_1.0'
p236
(dp237
g5
I22
sg6
I8
ssS'SoftMax_0.4'
p238
(dp239
g5
I22
sg6
I8
ssS'SoftMax_0.2'
p240
(dp241
g5
I15
sg6
I15
ssg21
(dp242
g5
I30
sg6
I0
ssS'SoftMax_0.8'
p243
(dp244
g5
I21
sg6
I9
sssI33
(dp245
S'Epsilon_Greedy_0.4'
p246
(dp247
g5
I20
sg6
I10
ssS'SoftMax_0.1'
p248
(dp249
g5
I24
sg6
I6
ssS'Epsilon_Greedy_0.1'
p250
(dp251
g5
I24
sg6
I6
ssS'Epsilon_Greedy_0.2'
p252
(dp253
g5
I25
sg6
I5
ssS'Epsilon_Greedy_0.3'
p254
(dp255
g5
I14
sg6
I16
ssS'SoftMax_1.0'
p256
(dp257
g5
I22
sg6
I8
ssS'SoftMax_0.4'
p258
(dp259
g5
I18
sg6
I12
ssS'SoftMax_0.2'
p260
(dp261
g5
I16
sg6
I14
ssg21
(dp262
g5
I30
sg6
I0
ssS'SoftMax_0.8'
p263
(dp264
g5
I19
sg6
I11
sssI34
(dp265
S'Epsilon_Greedy_0.4'
p266
(dp267
g5
I18
sg6
I12
ssS'SoftMax_0.1'
p268
(dp269
g5
I20
sg6
I10
ssS'Epsilon_Greedy_0.1'
p270
(dp271
g5
I25
sg6
I5
ssS'Epsilon_Greedy_0.2'
p272
(dp273
g5
I17
sg6
I13
ssS'Epsilon_Greedy_0.3'
p274
(dp275
g5
I19
sg6
I11
ssS'SoftMax_1.0'
p276
(dp277
g5
I25
sg6
I5
ssS'SoftMax_0.4'
p278
(dp279
g5
I18
sg6
I12
ssS'SoftMax_0.2'
p280
(dp281
g5
I15
sg6
I15
ssg21
(dp282
g5
I30
sg6
I0
ssS'SoftMax_0.8'
p283
(dp284
g5
I18
sg6
I12
sssI35
(dp285
S'Epsilon_Greedy_0.4'
p286
(dp287
g5
I17
sg6
I13
ssS'SoftMax_0.1'
p288
(dp289
g5
I24
sg6
I6
ssS'Epsilon_Greedy_0.1'
p290
(dp291
g5
I24
sg6
I6
ssS'Epsilon_Greedy_0.2'
p292
(dp293
g5
I22
sg6
I8
ssS'Epsilon_Greedy_0.3'
p294
(dp295
g5
I9
sg6
I21
ssS'SoftMax_1.0'
p296
(dp297
g5
I23
sg6
I7
ssS'SoftMax_0.4'
p298
(dp299
g5
I20
sg6
I10
ssS'SoftMax_0.2'
p300
(dp301
g5
I20
sg6
I10
ssg21
(dp302
g5
I30
sg6
I0
ssS'SoftMax_0.8'
p303
(dp304
g5
I22
sg6
I8
sssI36
(dp305
S'Epsilon_Greedy_0.4'
p306
(dp307
g5
I15
sg6
I15
ssS'SoftMax_0.1'
p308
(dp309
g5
I23
sg6
I7
ssS'Epsilon_Greedy_0.1'
p310
(dp311
g5
I26
sg6
I4
ssS'Epsilon_Greedy_0.2'
p312
(dp313
g5
I20
sg6
I10
ssS'Epsilon_Greedy_0.3'
p314
(dp315
g5
I15
sg6
I15
ssS'SoftMax_1.0'
p316
(dp317
g5
I18
sg6
I12
ssS'SoftMax_0.4'
p318
(dp319
g5
I23
sg6
I7
ssS'SoftMax_0.2'
p320
(dp321
g5
I18
sg6
I12
ssg21
(dp322
g5
I30
sg6
I0
ssS'SoftMax_0.8'
p323
(dp324
g5
I20
sg6
I10
sssI37
(dp325
S'Epsilon_Greedy_0.4'
p326
(dp327
g5
I20
sg6
I10
ssS'SoftMax_0.1'
p328
(dp329
g5
I20
sg6
I10
ssS'Epsilon_Greedy_0.1'
p330
(dp331
g5
I24
sg6
I6
ssS'Epsilon_Greedy_0.2'
p332
(dp333
g5
I22
sg6
I8
ssS'Epsilon_Greedy_0.3'
p334
(dp335
g5
I17
sg6
I13
ssS'SoftMax_1.0'
p336
(dp337
g5
I23
sg6
I7
ssS'SoftMax_0.4'
p338
(dp339
g5
I15
sg6
I15
ssS'SoftMax_0.2'
p340
(dp341
g5
I18
sg6
I12
ssg21
(dp342
g5
I25
sg6
I5
ssS'SoftMax_0.8'
p343
(dp344
g5
I22
sg6
I8
sssI38
(dp345
S'Epsilon_Greedy_0.4'
p346
(dp347
g5
I15
sg6
I15
ssS'SoftMax_0.1'
p348
(dp349
g5
I26
sg6
I4
ssS'Epsilon_Greedy_0.1'
p350
(dp351
g5
I25
sg6
I5
ssS'Epsilon_Greedy_0.2'
p352
(dp353
g5
I18
sg6
I12
ssS'Epsilon_Greedy_0.3'
p354
(dp355
g5
I16
sg6
I14
ssS'SoftMax_1.0'
p356
(dp357
g5
I27
sg6
I3
ssS'SoftMax_0.4'
p358
(dp359
g5
I18
sg6
I12
ssS'SoftMax_0.2'
p360
(dp361
g5
I18
sg6
I12
ssg21
(dp362
g5
I26
sg6
I4
ssS'SoftMax_0.8'
p363
(dp364
g5
I24
sg6
I6
sssI39
(dp365
S'Epsilon_Greedy_0.4'
p366
(dp367
g5
I20
sg6
I10
ssS'SoftMax_0.1'
p368
(dp369
g5
I24
sg6
I6
ssS'Epsilon_Greedy_0.1'
p370
(dp371
g5
I22
sg6
I8
ssS'Epsilon_Greedy_0.2'
p372
(dp373
g5
I18
sg6
I12
ssS'Epsilon_Greedy_0.3'
p374
(dp375
g5
I16
sg6
I14
ssS'SoftMax_1.0'
p376
(dp377
g5
I24
sg6
I6
ssS'SoftMax_0.4'
p378
(dp379
g5
I16
sg6
I14
ssS'SoftMax_0.2'
p380
(dp381
g5
I16
sg6
I14
ssg21
(dp382
g5
I24
sg6
I6
ssS'SoftMax_0.8'
p383
(dp384
g5
I24
sg6
I6
sssI40
(dp385
S'Epsilon_Greedy_0.4'
p386
(dp387
g5
I15
sg6
I15
ssS'SoftMax_0.1'
p388
(dp389
g5
I26
sg6
I4
ssS'Epsilon_Greedy_0.1'
p390
(dp391
g5
I22
sg6
I8
ssS'Epsilon_Greedy_0.2'
p392
(dp393
g5
I15
sg6
I15
ssS'Epsilon_Greedy_0.3'
p394
(dp395
g5
I18
sg6
I12
ssS'SoftMax_1.0'
p396
(dp397
g5
I20
sg6
I10
ssS'SoftMax_0.4'
p398
(dp399
g5
I18
sg6
I12
ssS'SoftMax_0.2'
p400
(dp401
g5
I20
sg6
I10
ssg21
(dp402
g5
I17
sg6
I13
ssS'SoftMax_0.8'
p403
(dp404
g5
I18
sg6
I12
sssI41
(dp405
S'Epsilon_Greedy_0.4'
p406
(dp407
g5
I19
sg6
I11
ssS'SoftMax_0.1'
p408
(dp409
g5
I21
sg6
I9
ssS'Epsilon_Greedy_0.1'
p410
(dp411
g5
I22
sg6
I8
ssS'Epsilon_Greedy_0.2'
p412
(dp413
g5
I15
sg6
I15
ssS'Epsilon_Greedy_0.3'
p414
(dp415
g5
I10
sg6
I20
ssS'SoftMax_1.0'
p416
(dp417
g5
I20
sg6
I10
ssS'SoftMax_0.4'
p418
(dp419
g5
I21
sg6
I9
ssS'SoftMax_0.2'
p420
(dp421
g5
I17
sg6
I13
ssg21
(dp422
g5
I9
sg6
I21
ssS'SoftMax_0.8'
p423
(dp424
g5
I22
sg6
I8
sssI42
(dp425
S'Epsilon_Greedy_0.4'
p426
(dp427
g5
I17
sg6
I13
ssS'SoftMax_0.1'
p428
(dp429
g5
I22
sg6
I8
ssS'Epsilon_Greedy_0.1'
p430
(dp431
g5
I21
sg6
I9
ssS'Epsilon_Greedy_0.2'
p432
(dp433
g5
I18
sg6
I12
ssS'Epsilon_Greedy_0.3'
p434
(dp435
g5
I15
sg6
I15
ssS'SoftMax_1.0'
p436
(dp437
g5
I23
sg6
I7
ssS'SoftMax_0.4'
p438
(dp439
g5
I19
sg6
I11
ssS'SoftMax_0.2'
p440
(dp441
g5
I13
sg6
I17
ssg21
(dp442
g5
I8
sg6
I22
ssS'SoftMax_0.8'
p443
(dp444
g5
I23
sg6
I7
sssI43
(dp445
S'Epsilon_Greedy_0.4'
p446
(dp447
g5
I15
sg6
I15
ssS'SoftMax_0.1'
p448
(dp449
g5
I24
sg6
I6
ssS'Epsilon_Greedy_0.1'
p450
(dp451
g5
I21
sg6
I9
ssS'Epsilon_Greedy_0.2'
p452
(dp453
g5
I18
sg6
I12
ssS'Epsilon_Greedy_0.3'
p454
(dp455
g5
I15
sg6
I15
ssS'SoftMax_1.0'
p456
(dp457
g5
I21
sg6
I9
ssS'SoftMax_0.4'
p458
(dp459
g5
I14
sg6
I16
ssS'SoftMax_0.2'
p460
(dp461
g5
I19
sg6
I11
ssg21
(dp462
g5
I2
sg6
I28
ssS'SoftMax_0.8'
p463
(dp464
g5
I25
sg6
I5
sssI44
(dp465
S'Epsilon_Greedy_0.4'
p466
(dp467
g5
I14
sg6
I16
ssS'SoftMax_0.1'
p468
(dp469
g5
I23
sg6
I7
ssS'Epsilon_Greedy_0.1'
p470
(dp471
g5
I22
sg6
I8
ssS'Epsilon_Greedy_0.2'
p472
(dp473
g5
I17
sg6
I13
ssS'Epsilon_Greedy_0.3'
p474
(dp475
g5
I19
sg6
I11
ssS'SoftMax_1.0'
p476
(dp477
g5
I20
sg6
I10
ssS'SoftMax_0.4'
p478
(dp479
g5
I19
sg6
I11
ssS'SoftMax_0.2'
p480
(dp481
g5
I19
sg6
I11
ssg21
(dp482
g5
I10
sg6
I20
ssS'SoftMax_0.8'
p483
(dp484
g5
I22
sg6
I8
sssI45
(dp485
S'Epsilon_Greedy_0.4'
p486
(dp487
g5
I16
sg6
I14
ssS'SoftMax_0.1'
p488
(dp489
g5
I20
sg6
I10
ssS'Epsilon_Greedy_0.1'
p490
(dp491
g5
I23
sg6
I7
ssS'Epsilon_Greedy_0.2'
p492
(dp493
g5
I15
sg6
I15
ssS'Epsilon_Greedy_0.3'
p494
(dp495
g5
I12
sg6
I18
ssS'SoftMax_1.0'
p496
(dp497
g5
I22
sg6
I8
ssS'SoftMax_0.4'
p498
(dp499
g5
I20
sg6
I10
ssS'SoftMax_0.2'
p500
(dp501
g5
I15
sg6
I15
ssg21
(dp502
g5
I8
sg6
I22
ssS'SoftMax_0.8'
p503
(dp504
g5
I27
sg6
I3
sssI46
(dp505
S'Epsilon_Greedy_0.4'
p506
(dp507
g5
I14
sg6
I16
ssS'SoftMax_0.1'
p508
(dp509
g5
I18
sg6
I12
ssS'Epsilon_Greedy_0.1'
p510
(dp511
g5
I24
sg6
I6
ssS'Epsilon_Greedy_0.2'
p512
(dp513
g5
I14
sg6
I16
ssS'Epsilon_Greedy_0.3'
p514
(dp515
g5
I15
sg6
I15
ssS'SoftMax_1.0'
p516
(dp517
g5
I26
sg6
I4
ssS'SoftMax_0.4'
p518
(dp519
g5
I19
sg6
I11
ssS'SoftMax_0.2'
p520
(dp521
g5
I16
sg6
I14
ssg21
(dp522
g5
I14
sg6
I16
ssS'SoftMax_0.8'
p523
(dp524
g5
I21
sg6
I9
sssI47
(dp525
S'Epsilon_Greedy_0.4'
p526
(dp527
g5
I14
sg6
I16
ssS'SoftMax_0.1'
p528
(dp529
g5
I23
sg6
I7
ssS'Epsilon_Greedy_0.1'
p530
(dp531
g5
I25
sg6
I5
ssS'Epsilon_Greedy_0.2'
p532
(dp533
g5
I22
sg6
I8
ssS'Epsilon_Greedy_0.3'
p534
(dp535
g5
I12
sg6
I18
ssS'SoftMax_1.0'
p536
(dp537
g5
I22
sg6
I8
ssS'SoftMax_0.4'
p538
(dp539
g5
I19
sg6
I11
ssS'SoftMax_0.2'
p540
(dp541
g5
I18
sg6
I12
ssg21
(dp542
g5
I13
sg6
I17
ssS'SoftMax_0.8'
p543
(dp544
g5
I23
sg6
I7
sssI48
(dp545
S'Epsilon_Greedy_0.4'
p546
(dp547
g5
I15
sg6
I15
ssS'SoftMax_0.1'
p548
(dp549
g5
I17
sg6
I13
ssS'Epsilon_Greedy_0.1'
p550
(dp551
g5
I22
sg6
I8
ssS'Epsilon_Greedy_0.2'
p552
(dp553
g5
I17
sg6
I13
ssS'Epsilon_Greedy_0.3'
p554
(dp555
g5
I13
sg6
I17
ssS'SoftMax_1.0'
p556
(dp557
g5
I18
sg6
I12
ssS'SoftMax_0.4'
p558
(dp559
g5
I17
sg6
I13
ssS'SoftMax_0.2'
p560
(dp561
g5
I20
sg6
I10
ssg21
(dp562
g5
I14
sg6
I16
ssS'SoftMax_0.8'
p563
(dp564
g5
I16
sg6
I14
sssI49
(dp565
S'Epsilon_Greedy_0.4'
p566
(dp567
g5
I15
sg6
I15
ssS'SoftMax_0.1'
p568
(dp569
g5
I23
sg6
I7
ssS'Epsilon_Greedy_0.1'
p570
(dp571
g5
I16
sg6
I14
ssS'Epsilon_Greedy_0.2'
p572
(dp573
g5
I18
sg6
I12
ssS'Epsilon_Greedy_0.3'
p574
(dp575
g5
I16
sg6
I14
ssS'SoftMax_1.0'
p576
(dp577
g5
I20
sg6
I10
ssS'SoftMax_0.4'
p578
(dp579
g5
I21
sg6
I9
ssS'SoftMax_0.2'
p580
(dp581
g5
I15
sg6
I15
ssg21
(dp582
g5
I19
sg6
I11
ssS'SoftMax_0.8'
p583
(dp584
g5
I18
sg6
I12
sssI50
(dp585
S'Epsilon_Greedy_0.4'
p586
(dp587
g5
I10
sg6
I20
ssS'SoftMax_0.1'
p588
(dp589
g5
I22
sg6
I8
ssS'Epsilon_Greedy_0.1'
p590
(dp591
g5
I18
sg6
I12
ssS'Epsilon_Greedy_0.2'
p592
(dp593
g5
I14
sg6
I16
ssS'Epsilon_Greedy_0.3'
p594
(dp595
g5
I12
sg6
I18
ssS'SoftMax_1.0'
p596
(dp597
g5
I24
sg6
I6
ssS'SoftMax_0.4'
p598
(dp599
g5
I19
sg6
I11
ssS'SoftMax_0.2'
p600
(dp601
g5
I16
sg6
I14
ssg21
(dp602
g5
I23
sg6
I7
ssS'SoftMax_0.8'
p603
(dp604
g5
I21
sg6
I9
sssI51
(dp605
S'Epsilon_Greedy_0.4'
p606
(dp607
g5
I17
sg6
I13
ssS'SoftMax_0.1'
p608
(dp609
g5
I25
sg6
I5
ssS'Epsilon_Greedy_0.1'
p610
(dp611
g5
I19
sg6
I11
ssS'Epsilon_Greedy_0.2'
p612
(dp613
g5
I12
sg6
I18
ssS'Epsilon_Greedy_0.3'
p614
(dp615
g5
I17
sg6
I13
ssS'SoftMax_1.0'
p616
(dp617
g5
I22
sg6
I8
ssS'SoftMax_0.4'
p618
(dp619
g5
I20
sg6
I10
ssS'SoftMax_0.2'
p620
(dp621
g5
I18
sg6
I12
ssg21
(dp622
g5
I20
sg6
I10
ssS'SoftMax_0.8'
p623
(dp624
g5
I20
sg6
I10
sssI52
(dp625
S'Epsilon_Greedy_0.4'
p626
(dp627
g5
I14
sg6
I16
ssS'SoftMax_0.1'
p628
(dp629
g5
I17
sg6
I13
ssS'Epsilon_Greedy_0.1'
p630
(dp631
g5
I19
sg6
I11
ssS'Epsilon_Greedy_0.2'
p632
(dp633
g5
I17
sg6
I13
ssS'Epsilon_Greedy_0.3'
p634
(dp635
g5
I12
sg6
I18
ssS'SoftMax_1.0'
p636
(dp637
g5
I21
sg6
I9
ssS'SoftMax_0.4'
p638
(dp639
g5
I20
sg6
I10
ssS'SoftMax_0.2'
p640
(dp641
g5
I19
sg6
I11
ssg21
(dp642
g5
I24
sg6
I6
ssS'SoftMax_0.8'
p643
(dp644
g5
I20
sg6
I10
sssI53
(dp645
S'Epsilon_Greedy_0.4'
p646
(dp647
g5
I14
sg6
I16
ssS'SoftMax_0.1'
p648
(dp649
g5
I22
sg6
I8
ssS'Epsilon_Greedy_0.1'
p650
(dp651
g5
I16
sg6
I14
ssS'Epsilon_Greedy_0.2'
p652
(dp653
g5
I15
sg6
I15
ssS'Epsilon_Greedy_0.3'
p654
(dp655
g5
I15
sg6
I15
ssS'SoftMax_1.0'
p656
(dp657
g5
I21
sg6
I9
ssS'SoftMax_0.4'
p658
(dp659
g5
I22
sg6
I8
ssS'SoftMax_0.2'
p660
(dp661
g5
I13
sg6
I17
ssg21
(dp662
g5
I20
sg6
I10
ssS'SoftMax_0.8'
p663
(dp664
g5
I21
sg6
I9
sssI54
(dp665
S'Epsilon_Greedy_0.4'
p666
(dp667
g5
I12
sg6
I18
ssS'SoftMax_0.1'
p668
(dp669
g5
I25
sg6
I5
ssS'Epsilon_Greedy_0.1'
p670
(dp671
g5
I17
sg6
I13
ssS'Epsilon_Greedy_0.2'
p672
(dp673
g5
I13
sg6
I17
ssS'Epsilon_Greedy_0.3'
p674
(dp675
g5
I12
sg6
I18
ssS'SoftMax_1.0'
p676
(dp677
g5
I23
sg6
I7
ssS'SoftMax_0.4'
p678
(dp679
g5
I20
sg6
I10
ssS'SoftMax_0.2'
p680
(dp681
g5
I20
sg6
I10
ssg21
(dp682
g5
I16
sg6
I14
ssS'SoftMax_0.8'
p683
(dp684
g5
I25
sg6
I5
sssI55
(dp685
S'Epsilon_Greedy_0.4'
p686
(dp687
g5
I13
sg6
I17
ssS'SoftMax_0.1'
p688
(dp689
g5
I22
sg6
I8
ssS'Epsilon_Greedy_0.1'
p690
(dp691
g5
I20
sg6
I10
ssS'Epsilon_Greedy_0.2'
p692
(dp693
g5
I17
sg6
I13
ssS'Epsilon_Greedy_0.3'
p694
(dp695
g5
I9
sg6
I21
ssS'SoftMax_1.0'
p696
(dp697
g5
I20
sg6
I10
ssS'SoftMax_0.4'
p698
(dp699
g5
I20
sg6
I10
ssS'SoftMax_0.2'
p700
(dp701
g5
I20
sg6
I10
ssg21
(dp702
g5
I16
sg6
I14
ssS'SoftMax_0.8'
p703
(dp704
g5
I21
sg6
I9
sssI56
(dp705
S'Epsilon_Greedy_0.4'
p706
(dp707
g5
I14
sg6
I16
ssS'SoftMax_0.1'
p708
(dp709
g5
I23
sg6
I7
ssS'Epsilon_Greedy_0.1'
p710
(dp711
g5
I17
sg6
I13
ssS'Epsilon_Greedy_0.2'
p712
(dp713
g5
I18
sg6
I12
ssS'Epsilon_Greedy_0.3'
p714
(dp715
g5
I15
sg6
I15
ssS'SoftMax_1.0'
p716
(dp717
g5
I19
sg6
I11
ssS'SoftMax_0.4'
p718
(dp719
g5
I21
sg6
I9
ssS'SoftMax_0.2'
p720
(dp721
g5
I13
sg6
I17
ssg21
(dp722
g5
I19
sg6
I11
ssS'SoftMax_0.8'
p723
(dp724
g5
I24
sg6
I6
sssI57
(dp725
S'Epsilon_Greedy_0.4'
p726
(dp727
g5
I14
sg6
I16
ssS'SoftMax_0.1'
p728
(dp729
g5
I25
sg6
I5
ssS'Epsilon_Greedy_0.1'
p730
(dp731
g5
I21
sg6
I9
ssS'Epsilon_Greedy_0.2'
p732
(dp733
g5
I16
sg6
I14
ssS'Epsilon_Greedy_0.3'
p734
(dp735
g5
I13
sg6
I17
ssS'SoftMax_1.0'
p736
(dp737
g5
I25
sg6
I5
ssS'SoftMax_0.4'
p738
(dp739
g5
I22
sg6
I8
ssS'SoftMax_0.2'
p740
(dp741
g5
I18
sg6
I12
ssg21
(dp742
g5
I18
sg6
I12
ssS'SoftMax_0.8'
p743
(dp744
g5
I21
sg6
I9
sssI58
(dp745
S'Epsilon_Greedy_0.4'
p746
(dp747
g5
I13
sg6
I17
ssS'SoftMax_0.1'
p748
(dp749
g5
I21
sg6
I9
ssS'Epsilon_Greedy_0.1'
p750
(dp751
g5
I20
sg6
I10
ssS'Epsilon_Greedy_0.2'
p752
(dp753
g5
I15
sg6
I15
ssS'Epsilon_Greedy_0.3'
p754
(dp755
g5
I16
sg6
I14
ssS'SoftMax_1.0'
p756
(dp757
g5
I22
sg6
I8
ssS'SoftMax_0.4'
p758
(dp759
g5
I22
sg6
I8
ssS'SoftMax_0.2'
p760
(dp761
g5
I17
sg6
I13
ssg21
(dp762
g5
I8
sg6
I22
ssS'SoftMax_0.8'
p763
(dp764
g5
I19
sg6
I11
sssI59
(dp765
S'Epsilon_Greedy_0.4'
p766
(dp767
g5
I11
sg6
I19
ssS'SoftMax_0.1'
p768
(dp769
g5
I21
sg6
I9
ssS'Epsilon_Greedy_0.1'
p770
(dp771
g5
I21
sg6
I9
ssS'Epsilon_Greedy_0.2'
p772
(dp773
g5
I18
sg6
I12
ssS'Epsilon_Greedy_0.3'
p774
(dp775
g5
I15
sg6
I15
ssS'SoftMax_1.0'
p776
(dp777
g5
I21
sg6
I9
ssS'SoftMax_0.4'
p778
(dp779
g5
I16
sg6
I14
ssS'SoftMax_0.2'
p780
(dp781
g5
I18
sg6
I12
ssg21
(dp782
g5
I13
sg6
I17
ssS'SoftMax_0.8'
p783
(dp784
g5
I20
sg6
I10
ssssI1
(dp785
I21
(dp786
S'Epsilon_Greedy_0.4'
p787
(dp788
g5
I10
sg6
I20
ssS'SoftMax_0.1'
p789
(dp790
g5
I9
sg6
I21
ssS'Epsilon_Greedy_0.1'
p791
(dp792
g5
I10
sg6
I20
ssS'Epsilon_Greedy_0.2'
p793
(dp794
g5
I13
sg6
I17
ssS'Epsilon_Greedy_0.3'
p795
(dp796
g5
I11
sg6
I19
ssS'SoftMax_1.0'
p797
(dp798
g5
I22
sg6
I8
ssS'SoftMax_0.4'
p799
(dp800
g5
I10
sg6
I20
ssS'SoftMax_0.2'
p801
(dp802
g5
I14
sg6
I16
ssg21
(dp803
g5
I14
sg6
I16
ssS'SoftMax_0.8'
p804
(dp805
g5
I20
sg6
I10
sssI22
(dp806
S'Epsilon_Greedy_0.4'
p807
(dp808
g5
I8
sg6
I22
ssS'SoftMax_0.1'
p809
(dp810
g5
I7
sg6
I23
ssS'Epsilon_Greedy_0.1'
p811
(dp812
g5
I5
sg6
I25
ssS'Epsilon_Greedy_0.2'
p813
(dp814
g5
I11
sg6
I19
ssS'Epsilon_Greedy_0.3'
p815
(dp816
g5
I12
sg6
I18
ssS'SoftMax_1.0'
p817
(dp818
g5
I19
sg6
I11
ssS'SoftMax_0.4'
p819
(dp820
g5
I14
sg6
I16
ssS'SoftMax_0.2'
p821
(dp822
g5
I16
sg6
I14
ssg21
(dp823
g5
I6
sg6
I24
ssS'SoftMax_0.8'
p824
(dp825
g5
I22
sg6
I8
sssI23
(dp826
S'Epsilon_Greedy_0.4'
p827
(dp828
g5
I10
sg6
I20
ssS'SoftMax_0.1'
p829
(dp830
g5
I7
sg6
I23
ssS'Epsilon_Greedy_0.1'
p831
(dp832
g5
I7
sg6
I23
ssS'Epsilon_Greedy_0.2'
p833
(dp834
g5
I11
sg6
I19
ssS'Epsilon_Greedy_0.3'
p835
(dp836
g5
I8
sg6
I22
ssS'SoftMax_1.0'
p837
(dp838
g5
I23
sg6
I7
ssS'SoftMax_0.4'
p839
(dp840
g5
I16
sg6
I14
ssS'SoftMax_0.2'
p841
(dp842
g5
I14
sg6
I16
ssg21
(dp843
g5
I1
sg6
I29
ssS'SoftMax_0.8'
p844
(dp845
g5
I23
sg6
I7
sssI24
(dp846
S'Epsilon_Greedy_0.4'
p847
(dp848
g5
I8
sg6
I22
ssS'SoftMax_0.1'
p849
(dp850
g5
I6
sg6
I24
ssS'Epsilon_Greedy_0.1'
p851
(dp852
g5
I3
sg6
I27
ssS'Epsilon_Greedy_0.2'
p853
(dp854
g5
I12
sg6
I18
ssS'Epsilon_Greedy_0.3'
p855
(dp856
g5
I12
sg6
I18
ssS'SoftMax_1.0'
p857
(dp858
g5
I24
sg6
I6
ssS'SoftMax_0.4'
p859
(dp860
g5
I16
sg6
I14
ssS'SoftMax_0.2'
p861
(dp862
g5
I16
sg6
I14
ssg21
(dp863
g5
I6
sg6
I24
ssS'SoftMax_0.8'
p864
(dp865
g5
I25
sg6
I5
sssI25
(dp866
S'Epsilon_Greedy_0.4'
p867
(dp868
g5
I7
sg6
I23
ssS'SoftMax_0.1'
p869
(dp870
g5
I5
sg6
I25
ssS'Epsilon_Greedy_0.1'
p871
(dp872
g5
I4
sg6
I26
ssS'Epsilon_Greedy_0.2'
p873
(dp874
g5
I11
sg6
I19
ssS'Epsilon_Greedy_0.3'
p875
(dp876
g5
I8
sg6
I22
ssS'SoftMax_1.0'
p877
(dp878
g5
I21
sg6
I9
ssS'SoftMax_0.4'
p879
(dp880
g5
I19
sg6
I11
ssS'SoftMax_0.2'
p881
(dp882
g5
I13
sg6
I17
ssg21
(dp883
g5
I3
sg6
I27
ssS'SoftMax_0.8'
p884
(dp885
g5
I19
sg6
I11
sssI26
(dp886
S'Epsilon_Greedy_0.4'
p887
(dp888
g5
I7
sg6
I23
ssS'SoftMax_0.1'
p889
(dp890
g5
I4
sg6
I26
ssS'Epsilon_Greedy_0.1'
p891
(dp892
g5
I7
sg6
I23
ssS'Epsilon_Greedy_0.2'
p893
(dp894
g5
I3
sg6
I27
ssS'Epsilon_Greedy_0.3'
p895
(dp896
g5
I10
sg6
I20
ssS'SoftMax_1.0'
p897
(dp898
g5
I23
sg6
I7
ssS'SoftMax_0.4'
p899
(dp900
g5
I18
sg6
I12
ssS'SoftMax_0.2'
p901
(dp902
g5
I12
sg6
I18
ssg21
(dp903
g5
I9
sg6
I21
ssS'SoftMax_0.8'
p904
(dp905
g5
I21
sg6
I9
sssI27
(dp906
S'Epsilon_Greedy_0.4'
p907
(dp908
g5
I7
sg6
I23
ssS'SoftMax_0.1'
p909
(dp910
g5
I7
sg6
I23
ssS'Epsilon_Greedy_0.1'
p911
(dp912
g5
I4
sg6
I26
ssS'Epsilon_Greedy_0.2'
p913
(dp914
g5
I7
sg6
I23
ssS'Epsilon_Greedy_0.3'
p915
(dp916
g5
I11
sg6
I19
ssS'SoftMax_1.0'
p917
(dp918
g5
I19
sg6
I11
ssS'SoftMax_0.4'
p919
(dp920
g5
I17
sg6
I13
ssS'SoftMax_0.2'
p921
(dp922
g5
I8
sg6
I22
ssg21
(dp923
g5
I14
sg6
I16
ssS'SoftMax_0.8'
p924
(dp925
g5
I22
sg6
I8
sssI28
(dp926
S'Epsilon_Greedy_0.4'
p927
(dp928
g5
I6
sg6
I24
ssS'SoftMax_0.1'
p929
(dp930
g5
I9
sg6
I21
ssS'Epsilon_Greedy_0.1'
p931
(dp932
g5
I4
sg6
I26
ssS'Epsilon_Greedy_0.2'
p933
(dp934
g5
I5
sg6
I25
ssS'Epsilon_Greedy_0.3'
p935
(dp936
g5
I8
sg6
I22
ssS'SoftMax_1.0'
p937
(dp938
g5
I19
sg6
I11
ssS'SoftMax_0.4'
p939
(dp940
g5
I17
sg6
I13
ssS'SoftMax_0.2'
p941
(dp942
g5
I11
sg6
I19
ssg21
(dp943
g5
I19
sg6
I11
ssS'SoftMax_0.8'
p944
(dp945
g5
I24
sg6
I6
sssI29
(dp946
S'Epsilon_Greedy_0.4'
p947
(dp948
g5
I6
sg6
I24
ssS'SoftMax_0.1'
p949
(dp950
g5
I5
sg6
I25
ssS'Epsilon_Greedy_0.1'
p951
(dp952
g5
I3
sg6
I27
ssS'Epsilon_Greedy_0.2'
p953
(dp954
g5
I10
sg6
I20
ssS'Epsilon_Greedy_0.3'
p955
(dp956
g5
I10
sg6
I20
ssS'SoftMax_1.0'
p957
(dp958
g5
I20
sg6
I10
ssS'SoftMax_0.4'
p959
(dp960
g5
I18
sg6
I12
ssS'SoftMax_0.2'
p961
(dp962
g5
I13
sg6
I17
ssg21
(dp963
g5
I20
sg6
I10
ssS'SoftMax_0.8'
p964
(dp965
g5
I21
sg6
I9
sssI30
(dp966
S'Epsilon_Greedy_0.4'
p967
(dp968
g5
I7
sg6
I23
ssS'SoftMax_0.1'
p969
(dp970
g5
I2
sg6
I28
ssS'Epsilon_Greedy_0.1'
p971
(dp972
g5
I8
sg6
I22
ssS'Epsilon_Greedy_0.2'
p973
(dp974
g5
I5
sg6
I25
ssS'Epsilon_Greedy_0.3'
p975
(dp976
g5
I7
sg6
I23
ssS'SoftMax_1.0'
p977
(dp978
g5
I23
sg6
I7
ssS'SoftMax_0.4'
p979
(dp980
g5
I16
sg6
I14
ssS'SoftMax_0.2'
p981
(dp982
g5
I11
sg6
I19
ssg21
(dp983
g5
I23
sg6
I7
ssS'SoftMax_0.8'
p984
(dp985
g5
I22
sg6
I8
sssI31
(dp986
S'Epsilon_Greedy_0.4'
p987
(dp988
g5
I7
sg6
I23
ssS'SoftMax_0.1'
p989
(dp990
g5
I8
sg6
I22
ssS'Epsilon_Greedy_0.1'
p991
(dp992
g5
I8
sg6
I22
ssS'Epsilon_Greedy_0.2'
p993
(dp994
g5
I11
sg6
I19
ssS'Epsilon_Greedy_0.3'
p995
(dp996
g5
I5
sg6
I25
ssS'SoftMax_1.0'
p997
(dp998
g5
I21
sg6
I9
ssS'SoftMax_0.4'
p999
(dp1000
g5
I17
sg6
I13
ssS'SoftMax_0.2'
p1001
(dp1002
g5
I15
sg6
I15
ssg21
(dp1003
g5
I24
sg6
I6
ssS'SoftMax_0.8'
p1004
(dp1005
g5
I22
sg6
I8
sssI32
(dp1006
S'Epsilon_Greedy_0.4'
p1007
(dp1008
g5
I8
sg6
I22
ssS'SoftMax_0.1'
p1009
(dp1010
g5
I4
sg6
I26
ssS'Epsilon_Greedy_0.1'
p1011
(dp1012
g5
I8
sg6
I22
ssS'Epsilon_Greedy_0.2'
p1013
(dp1014
g5
I7
sg6
I23
ssS'Epsilon_Greedy_0.3'
p1015
(dp1016
g5
I10
sg6
I20
ssS'SoftMax_1.0'
p1017
(dp1018
g5
I24
sg6
I6
ssS'SoftMax_0.4'
p1019
(dp1020
g5
I17
sg6
I13
ssS'SoftMax_0.2'
p1021
(dp1022
g5
I14
sg6
I16
ssg21
(dp1023
g5
I21
sg6
I9
ssS'SoftMax_0.8'
p1024
(dp1025
g5
I25
sg6
I5
sssI33
(dp1026
S'Epsilon_Greedy_0.4'
p1027
(dp1028
g5
I11
sg6
I19
ssS'SoftMax_0.1'
p1029
(dp1030
g5
I5
sg6
I25
ssS'Epsilon_Greedy_0.1'
p1031
(dp1032
g5
I8
sg6
I22
ssS'Epsilon_Greedy_0.2'
p1033
(dp1034
g5
I6
sg6
I24
ssS'Epsilon_Greedy_0.3'
p1035
(dp1036
g5
I8
sg6
I22
ssS'SoftMax_1.0'
p1037
(dp1038
g5
I21
sg6
I9
ssS'SoftMax_0.4'
p1039
(dp1040
g5
I19
sg6
I11
ssS'SoftMax_0.2'
p1041
(dp1042
g5
I14
sg6
I16
ssg21
(dp1043
g5
I20
sg6
I10
ssS'SoftMax_0.8'
p1044
(dp1045
g5
I22
sg6
I8
sssI34
(dp1046
S'Epsilon_Greedy_0.4'
p1047
(dp1048
g5
I7
sg6
I23
ssS'SoftMax_0.1'
p1049
(dp1050
g5
I7
sg6
I23
ssS'Epsilon_Greedy_0.1'
p1051
(dp1052
g5
I6
sg6
I24
ssS'Epsilon_Greedy_0.2'
p1053
(dp1054
g5
I7
sg6
I23
ssS'Epsilon_Greedy_0.3'
p1055
(dp1056
g5
I14
sg6
I16
ssS'SoftMax_1.0'
p1057
(dp1058
g5
I21
sg6
I9
ssS'SoftMax_0.4'
p1059
(dp1060
g5
I16
sg6
I14
ssS'SoftMax_0.2'
p1061
(dp1062
g5
I13
sg6
I17
ssg21
(dp1063
g5
I20
sg6
I10
ssS'SoftMax_0.8'
p1064
(dp1065
g5
I22
sg6
I8
sssI35
(dp1066
S'Epsilon_Greedy_0.4'
p1067
(dp1068
g5
I8
sg6
I22
ssS'SoftMax_0.1'
p1069
(dp1070
g5
I4
sg6
I26
ssS'Epsilon_Greedy_0.1'
p1071
(dp1072
g5
I4
sg6
I26
ssS'Epsilon_Greedy_0.2'
p1073
(dp1074
g5
I7
sg6
I23
ssS'Epsilon_Greedy_0.3'
p1075
(dp1076
g5
I11
sg6
I19
ssS'SoftMax_1.0'
p1077
(dp1078
g5
I21
sg6
I9
ssS'SoftMax_0.4'
p1079
(dp1080
g5
I10
sg6
I20
ssS'SoftMax_0.2'
p1081
(dp1082
g5
I7
sg6
I23
ssg21
(dp1083
g5
I13
sg6
I17
ssS'SoftMax_0.8'
p1084
(dp1085
g5
I22
sg6
I8
sssI36
(dp1086
S'Epsilon_Greedy_0.4'
p1087
(dp1088
g5
I10
sg6
I20
ssS'SoftMax_0.1'
p1089
(dp1090
g5
I6
sg6
I24
ssS'Epsilon_Greedy_0.1'
p1091
(dp1092
g5
I9
sg6
I21
ssS'Epsilon_Greedy_0.2'
p1093
(dp1094
g5
I6
sg6
I24
ssS'Epsilon_Greedy_0.3'
p1095
(dp1096
g5
I9
sg6
I21
ssS'SoftMax_1.0'
p1097
(dp1098
g5
I25
sg6
I5
ssS'SoftMax_0.4'
p1099
(dp1100
g5
I16
sg6
I14
ssS'SoftMax_0.2'
p1101
(dp1102
g5
I10
sg6
I20
ssg21
(dp1103
g5
I20
sg6
I10
ssS'SoftMax_0.8'
p1104
(dp1105
g5
I18
sg6
I12
sssI37
(dp1106
S'Epsilon_Greedy_0.4'
p1107
(dp1108
g5
I7
sg6
I23
ssS'SoftMax_0.1'
p1109
(dp1110
g5
I6
sg6
I24
ssS'Epsilon_Greedy_0.1'
p1111
(dp1112
g5
I4
sg6
I26
ssS'Epsilon_Greedy_0.2'
p1113
(dp1114
g5
I11
sg6
I19
ssS'Epsilon_Greedy_0.3'
p1115
(dp1116
g5
I10
sg6
I20
ssS'SoftMax_1.0'
p1117
(dp1118
g5
I23
sg6
I7
ssS'SoftMax_0.4'
p1119
(dp1120
g5
I16
sg6
I14
ssS'SoftMax_0.2'
p1121
(dp1122
g5
I17
sg6
I13
ssg21
(dp1123
g5
I19
sg6
I11
ssS'SoftMax_0.8'
p1124
(dp1125
g5
I27
sg6
I3
sssI38
(dp1126
S'Epsilon_Greedy_0.4'
p1127
(dp1128
g5
I11
sg6
I19
ssS'SoftMax_0.1'
p1129
(dp1130
g5
I1
sg6
I29
ssS'Epsilon_Greedy_0.1'
p1131
(dp1132
g5
I5
sg6
I25
ssS'Epsilon_Greedy_0.2'
p1133
(dp1134
g5
I10
sg6
I20
ssS'Epsilon_Greedy_0.3'
p1135
(dp1136
g5
I5
sg6
I25
ssS'SoftMax_1.0'
p1137
(dp1138
g5
I24
sg6
I6
ssS'SoftMax_0.4'
p1139
(dp1140
g5
I19
sg6
I11
ssS'SoftMax_0.2'
p1141
(dp1142
g5
I10
sg6
I20
ssg21
(dp1143
g5
I20
sg6
I10
ssS'SoftMax_0.8'
p1144
(dp1145
g5
I22
sg6
I8
sssI39
(dp1146
S'Epsilon_Greedy_0.4'
p1147
(dp1148
g5
I5
sg6
I25
ssS'SoftMax_0.1'
p1149
(dp1150
g5
I2
sg6
I28
ssS'Epsilon_Greedy_0.1'
p1151
(dp1152
g5
I7
sg6
I23
ssS'Epsilon_Greedy_0.2'
p1153
(dp1154
g5
I9
sg6
I21
ssS'Epsilon_Greedy_0.3'
p1155
(dp1156
g5
I6
sg6
I24
ssS'SoftMax_1.0'
p1157
(dp1158
g5
I22
sg6
I8
ssS'SoftMax_0.4'
p1159
(dp1160
g5
I16
sg6
I14
ssS'SoftMax_0.2'
p1161
(dp1162
g5
I8
sg6
I22
ssg21
(dp1163
g5
I20
sg6
I10
ssS'SoftMax_0.8'
p1164
(dp1165
g5
I22
sg6
I8
sssI40
(dp1166
S'Epsilon_Greedy_0.4'
p1167
(dp1168
g5
I4
sg6
I26
ssS'SoftMax_0.1'
p1169
(dp1170
g5
I8
sg6
I22
ssS'Epsilon_Greedy_0.1'
p1171
(dp1172
g5
I10
sg6
I20
ssS'Epsilon_Greedy_0.2'
p1173
(dp1174
g5
I5
sg6
I25
ssS'Epsilon_Greedy_0.3'
p1175
(dp1176
g5
I14
sg6
I16
ssS'SoftMax_1.0'
p1177
(dp1178
g5
I22
sg6
I8
ssS'SoftMax_0.4'
p1179
(dp1180
g5
I14
sg6
I16
ssS'SoftMax_0.2'
p1181
(dp1182
g5
I10
sg6
I20
ssg21
(dp1183
g5
I15
sg6
I15
ssS'SoftMax_0.8'
p1184
(dp1185
g5
I21
sg6
I9
sssI41
(dp1186
S'Epsilon_Greedy_0.4'
p1187
(dp1188
g5
I5
sg6
I25
ssS'SoftMax_0.1'
p1189
(dp1190
g5
I10
sg6
I20
ssS'Epsilon_Greedy_0.1'
p1191
(dp1192
g5
I8
sg6
I22
ssS'Epsilon_Greedy_0.2'
p1193
(dp1194
g5
I10
sg6
I20
ssS'Epsilon_Greedy_0.3'
p1195
(dp1196
g5
I11
sg6
I19
ssS'SoftMax_1.0'
p1197
(dp1198
g5
I21
sg6
I9
ssS'SoftMax_0.4'
p1199
(dp1200
g5
I19
sg6
I11
ssS'SoftMax_0.2'
p1201
(dp1202
g5
I15
sg6
I15
ssg21
(dp1203
g5
I14
sg6
I16
ssS'SoftMax_0.8'
p1204
(dp1205
g5
I26
sg6
I4
sssI42
(dp1206
S'Epsilon_Greedy_0.4'
p1207
(dp1208
g5
I7
sg6
I23
ssS'SoftMax_0.1'
p1209
(dp1210
g5
I5
sg6
I25
ssS'Epsilon_Greedy_0.1'
p1211
(dp1212
g5
I4
sg6
I26
ssS'Epsilon_Greedy_0.2'
p1213
(dp1214
g5
I6
sg6
I24
ssS'Epsilon_Greedy_0.3'
p1215
(dp1216
g5
I10
sg6
I20
ssS'SoftMax_1.0'
p1217
(dp1218
g5
I19
sg6
I11
ssS'SoftMax_0.4'
p1219
(dp1220
g5
I14
sg6
I16
ssS'SoftMax_0.2'
p1221
(dp1222
g5
I14
sg6
I16
ssg21
(dp1223
g5
I13
sg6
I17
ssS'SoftMax_0.8'
p1224
(dp1225
g5
I22
sg6
I8
sssI43
(dp1226
S'Epsilon_Greedy_0.4'
p1227
(dp1228
g5
I7
sg6
I23
ssS'SoftMax_0.1'
p1229
(dp1230
g5
I7
sg6
I23
ssS'Epsilon_Greedy_0.1'
p1231
(dp1232
g5
I10
sg6
I20
ssS'Epsilon_Greedy_0.2'
p1233
(dp1234
g5
I9
sg6
I21
ssS'Epsilon_Greedy_0.3'
p1235
(dp1236
g5
I7
sg6
I23
ssS'SoftMax_1.0'
p1237
(dp1238
g5
I17
sg6
I13
ssS'SoftMax_0.4'
p1239
(dp1240
g5
I19
sg6
I11
ssS'SoftMax_0.2'
p1241
(dp1242
g5
I10
sg6
I20
ssg21
(dp1243
g5
I19
sg6
I11
ssS'SoftMax_0.8'
p1244
(dp1245
g5
I25
sg6
I5
sssI44
(dp1246
S'Epsilon_Greedy_0.4'
p1247
(dp1248
g5
I6
sg6
I24
ssS'SoftMax_0.1'
p1249
(dp1250
g5
I5
sg6
I25
ssS'Epsilon_Greedy_0.1'
p1251
(dp1252
g5
I6
sg6
I24
ssS'Epsilon_Greedy_0.2'
p1253
(dp1254
g5
I11
sg6
I19
ssS'Epsilon_Greedy_0.3'
p1255
(dp1256
g5
I10
sg6
I20
ssS'SoftMax_1.0'
p1257
(dp1258
g5
I21
sg6
I9
ssS'SoftMax_0.4'
p1259
(dp1260
g5
I15
sg6
I15
ssS'SoftMax_0.2'
p1261
(dp1262
g5
I11
sg6
I19
ssg21
(dp1263
g5
I19
sg6
I11
ssS'SoftMax_0.8'
p1264
(dp1265
g5
I25
sg6
I5
sssI45
(dp1266
S'Epsilon_Greedy_0.4'
p1267
(dp1268
g5
I8
sg6
I22
ssS'SoftMax_0.1'
p1269
(dp1270
g5
I6
sg6
I24
ssS'Epsilon_Greedy_0.1'
p1271
(dp1272
g5
I9
sg6
I21
ssS'Epsilon_Greedy_0.2'
p1273
(dp1274
g5
I6
sg6
I24
ssS'Epsilon_Greedy_0.3'
p1275
(dp1276
g5
I12
sg6
I18
ssS'SoftMax_1.0'
p1277
(dp1278
g5
I21
sg6
I9
ssS'SoftMax_0.4'
p1279
(dp1280
g5
I14
sg6
I16
ssS'SoftMax_0.2'
p1281
(dp1282
g5
I9
sg6
I21
ssg21
(dp1283
g5
I21
sg6
I9
ssS'SoftMax_0.8'
p1284
(dp1285
g5
I23
sg6
I7
sssI46
(dp1286
S'Epsilon_Greedy_0.4'
p1287
(dp1288
g5
I6
sg6
I24
ssS'SoftMax_0.1'
p1289
(dp1290
g5
I4
sg6
I26
ssS'Epsilon_Greedy_0.1'
p1291
(dp1292
g5
I12
sg6
I18
ssS'Epsilon_Greedy_0.2'
p1293
(dp1294
g5
I11
sg6
I19
ssS'Epsilon_Greedy_0.3'
p1295
(dp1296
g5
I5
sg6
I25
ssS'SoftMax_1.0'
p1297
(dp1298
g5
I22
sg6
I8
ssS'SoftMax_0.4'
p1299
(dp1300
g5
I16
sg6
I14
ssS'SoftMax_0.2'
p1301
(dp1302
g5
I9
sg6
I21
ssg21
(dp1303
g5
I21
sg6
I9
ssS'SoftMax_0.8'
p1304
(dp1305
g5
I19
sg6
I11
sssI47
(dp1306
S'Epsilon_Greedy_0.4'
p1307
(dp1308
g5
I6
sg6
I24
ssS'SoftMax_0.1'
p1309
(dp1310
g5
I4
sg6
I26
ssS'Epsilon_Greedy_0.1'
p1311
(dp1312
g5
I6
sg6
I24
ssS'Epsilon_Greedy_0.2'
p1313
(dp1314
g5
I5
sg6
I25
ssS'Epsilon_Greedy_0.3'
p1315
(dp1316
g5
I6
sg6
I24
ssS'SoftMax_1.0'
p1317
(dp1318
g5
I24
sg6
I6
ssS'SoftMax_0.4'
p1319
(dp1320
g5
I16
sg6
I14
ssS'SoftMax_0.2'
p1321
(dp1322
g5
I11
sg6
I19
ssg21
(dp1323
g5
I19
sg6
I11
ssS'SoftMax_0.8'
p1324
(dp1325
g5
I23
sg6
I7
sssI48
(dp1326
S'Epsilon_Greedy_0.4'
p1327
(dp1328
g5
I4
sg6
I26
ssS'SoftMax_0.1'
p1329
(dp1330
g5
I6
sg6
I24
ssS'Epsilon_Greedy_0.1'
p1331
(dp1332
g5
I4
sg6
I26
ssS'Epsilon_Greedy_0.2'
p1333
(dp1334
g5
I9
sg6
I21
ssS'Epsilon_Greedy_0.3'
p1335
(dp1336
g5
I8
sg6
I22
ssS'SoftMax_1.0'
p1337
(dp1338
g5
I20
sg6
I10
ssS'SoftMax_0.4'
p1339
(dp1340
g5
I18
sg6
I12
ssS'SoftMax_0.2'
p1341
(dp1342
g5
I9
sg6
I21
ssg21
(dp1343
g5
I24
sg6
I6
ssS'SoftMax_0.8'
p1344
(dp1345
g5
I24
sg6
I6
sssI49
(dp1346
S'Epsilon_Greedy_0.4'
p1347
(dp1348
g5
I4
sg6
I26
ssS'SoftMax_0.1'
p1349
(dp1350
g5
I7
sg6
I23
ssS'Epsilon_Greedy_0.1'
p1351
(dp1352
g5
I6
sg6
I24
ssS'Epsilon_Greedy_0.2'
p1353
(dp1354
g5
I13
sg6
I17
ssS'Epsilon_Greedy_0.3'
p1355
(dp1356
g5
I8
sg6
I22
ssS'SoftMax_1.0'
p1357
(dp1358
g5
I24
sg6
I6
ssS'SoftMax_0.4'
p1359
(dp1360
g5
I16
sg6
I14
ssS'SoftMax_0.2'
p1361
(dp1362
g5
I10
sg6
I20
ssg21
(dp1363
g5
I21
sg6
I9
ssS'SoftMax_0.8'
p1364
(dp1365
g5
I25
sg6
I5
sssI50
(dp1366
S'Epsilon_Greedy_0.4'
p1367
(dp1368
g5
I10
sg6
I20
ssS'SoftMax_0.1'
p1369
(dp1370
g5
I9
sg6
I21
ssS'Epsilon_Greedy_0.1'
p1371
(dp1372
g5
I3
sg6
I27
ssS'Epsilon_Greedy_0.2'
p1373
(dp1374
g5
I6
sg6
I24
ssS'Epsilon_Greedy_0.3'
p1375
(dp1376
g5
I10
sg6
I20
ssS'SoftMax_1.0'
p1377
(dp1378
g5
I20
sg6
I10
ssS'SoftMax_0.4'
p1379
(dp1380
g5
I16
sg6
I14
ssS'SoftMax_0.2'
p1381
(dp1382
g5
I10
sg6
I20
ssg21
(dp1383
g5
I22
sg6
I8
ssS'SoftMax_0.8'
p1384
(dp1385
g5
I20
sg6
I10
sssI51
(dp1386
S'Epsilon_Greedy_0.4'
p1387
(dp1388
g5
I8
sg6
I22
ssS'SoftMax_0.1'
p1389
(dp1390
g5
I3
sg6
I27
ssS'Epsilon_Greedy_0.1'
p1391
(dp1392
g5
I12
sg6
I18
ssS'Epsilon_Greedy_0.2'
p1393
(dp1394
g5
I7
sg6
I23
ssS'Epsilon_Greedy_0.3'
p1395
(dp1396
g5
I8
sg6
I22
ssS'SoftMax_1.0'
p1397
(dp1398
g5
I22
sg6
I8
ssS'SoftMax_0.4'
p1399
(dp1400
g5
I19
sg6
I11
ssS'SoftMax_0.2'
p1401
(dp1402
g5
I9
sg6
I21
ssg21
(dp1403
g5
I19
sg6
I11
ssS'SoftMax_0.8'
p1404
(dp1405
g5
I20
sg6
I10
sssI52
(dp1406
S'Epsilon_Greedy_0.4'
p1407
(dp1408
g5
I9
sg6
I21
ssS'SoftMax_0.1'
p1409
(dp1410
g5
I4
sg6
I26
ssS'Epsilon_Greedy_0.1'
p1411
(dp1412
g5
I5
sg6
I25
ssS'Epsilon_Greedy_0.2'
p1413
(dp1414
g5
I8
sg6
I22
ssS'Epsilon_Greedy_0.3'
p1415
(dp1416
g5
I11
sg6
I19
ssS'SoftMax_1.0'
p1417
(dp1418
g5
I21
sg6
I9
ssS'SoftMax_0.4'
p1419
(dp1420
g5
I14
sg6
I16
ssS'SoftMax_0.2'
p1421
(dp1422
g5
I10
sg6
I20
ssg21
(dp1423
g5
I19
sg6
I11
ssS'SoftMax_0.8'
p1424
(dp1425
g5
I22
sg6
I8
sssI53
(dp1426
S'Epsilon_Greedy_0.4'
p1427
(dp1428
g5
I7
sg6
I23
ssS'SoftMax_0.1'
p1429
(dp1430
g5
I2
sg6
I28
ssS'Epsilon_Greedy_0.1'
p1431
(dp1432
g5
I7
sg6
I23
ssS'Epsilon_Greedy_0.2'
p1433
(dp1434
g5
I8
sg6
I22
ssS'Epsilon_Greedy_0.3'
p1435
(dp1436
g5
I8
sg6
I22
ssS'SoftMax_1.0'
p1437
(dp1438
g5
I16
sg6
I14
ssS'SoftMax_0.4'
p1439
(dp1440
g5
I19
sg6
I11
ssS'SoftMax_0.2'
p1441
(dp1442
g5
I16
sg6
I14
ssg21
(dp1443
g5
I23
sg6
I7
ssS'SoftMax_0.8'
p1444
(dp1445
g5
I24
sg6
I6
sssI54
(dp1446
S'Epsilon_Greedy_0.4'
p1447
(dp1448
g5
I3
sg6
I27
ssS'SoftMax_0.1'
p1449
(dp1450
g5
I3
sg6
I27
ssS'Epsilon_Greedy_0.1'
p1451
(dp1452
g5
I5
sg6
I25
ssS'Epsilon_Greedy_0.2'
p1453
(dp1454
g5
I9
sg6
I21
ssS'Epsilon_Greedy_0.3'
p1455
(dp1456
g5
I9
sg6
I21
ssS'SoftMax_1.0'
p1457
(dp1458
g5
I21
sg6
I9
ssS'SoftMax_0.4'
p1459
(dp1460
g5
I10
sg6
I20
ssS'SoftMax_0.2'
p1461
(dp1462
g5
I7
sg6
I23
ssg21
(dp1463
g5
I19
sg6
I11
ssS'SoftMax_0.8'
p1464
(dp1465
g5
I20
sg6
I10
sssI55
(dp1466
S'Epsilon_Greedy_0.4'
p1467
(dp1468
g5
I3
sg6
I27
ssS'SoftMax_0.1'
p1469
(dp1470
g5
I7
sg6
I23
ssS'Epsilon_Greedy_0.1'
p1471
(dp1472
g5
I8
sg6
I22
ssS'Epsilon_Greedy_0.2'
p1473
(dp1474
g5
I10
sg6
I20
ssS'Epsilon_Greedy_0.3'
p1475
(dp1476
g5
I4
sg6
I26
ssS'SoftMax_1.0'
p1477
(dp1478
g5
I21
sg6
I9
ssS'SoftMax_0.4'
p1479
(dp1480
g5
I14
sg6
I16
ssS'SoftMax_0.2'
p1481
(dp1482
g5
I7
sg6
I23
ssg21
(dp1483
g5
I19
sg6
I11
ssS'SoftMax_0.8'
p1484
(dp1485
g5
I24
sg6
I6
sssI56
(dp1486
S'Epsilon_Greedy_0.4'
p1487
(dp1488
g5
I8
sg6
I22
ssS'SoftMax_0.1'
p1489
(dp1490
g5
I7
sg6
I23
ssS'Epsilon_Greedy_0.1'
p1491
(dp1492
g5
I6
sg6
I24
ssS'Epsilon_Greedy_0.2'
p1493
(dp1494
g5
I11
sg6
I19
ssS'Epsilon_Greedy_0.3'
p1495
(dp1496
g5
I7
sg6
I23
ssS'SoftMax_1.0'
p1497
(dp1498
g5
I17
sg6
I13
ssS'SoftMax_0.4'
p1499
(dp1500
g5
I16
sg6
I14
ssS'SoftMax_0.2'
p1501
(dp1502
g5
I8
sg6
I22
ssg21
(dp1503
g5
I15
sg6
I15
ssS'SoftMax_0.8'
p1504
(dp1505
g5
I24
sg6
I6
sssI57
(dp1506
S'Epsilon_Greedy_0.4'
p1507
(dp1508
g5
I6
sg6
I24
ssS'SoftMax_0.1'
p1509
(dp1510
g5
I3
sg6
I27
ssS'Epsilon_Greedy_0.1'
p1511
(dp1512
g5
I4
sg6
I26
ssS'Epsilon_Greedy_0.2'
p1513
(dp1514
g5
I11
sg6
I19
ssS'Epsilon_Greedy_0.3'
p1515
(dp1516
g5
I12
sg6
I18
ssS'SoftMax_1.0'
p1517
(dp1518
g5
I21
sg6
I9
ssS'SoftMax_0.4'
p1519
(dp1520
g5
I13
sg6
I17
ssS'SoftMax_0.2'
p1521
(dp1522
g5
I13
sg6
I17
ssg21
(dp1523
g5
I12
sg6
I18
ssS'SoftMax_0.8'
p1524
(dp1525
g5
I22
sg6
I8
sssI58
(dp1526
S'Epsilon_Greedy_0.4'
p1527
(dp1528
g5
I4
sg6
I26
ssS'SoftMax_0.1'
p1529
(dp1530
g5
I7
sg6
I23
ssS'Epsilon_Greedy_0.1'
p1531
(dp1532
g5
I5
sg6
I25
ssS'Epsilon_Greedy_0.2'
p1533
(dp1534
g5
I6
sg6
I24
ssS'Epsilon_Greedy_0.3'
p1535
(dp1536
g5
I6
sg6
I24
ssS'SoftMax_1.0'
p1537
(dp1538
g5
I24
sg6
I6
ssS'SoftMax_0.4'
p1539
(dp1540
g5
I18
sg6
I12
ssS'SoftMax_0.2'
p1541
(dp1542
g5
I8
sg6
I22
ssg21
(dp1543
g5
I18
sg6
I12
ssS'SoftMax_0.8'
p1544
(dp1545
g5
I22
sg6
I8
sssI59
(dp1546
S'Epsilon_Greedy_0.4'
p1547
(dp1548
g5
I11
sg6
I19
ssS'SoftMax_0.1'
p1549
(dp1550
g5
I5
sg6
I25
ssS'Epsilon_Greedy_0.1'
p1551
(dp1552
g5
I7
sg6
I23
ssS'Epsilon_Greedy_0.2'
p1553
(dp1554
g5
I1
sg6
I29
ssS'Epsilon_Greedy_0.3'
p1555
(dp1556
g5
I8
sg6
I22
ssS'SoftMax_1.0'
p1557
(dp1558
g5
I21
sg6
I9
ssS'SoftMax_0.4'
p1559
(dp1560
g5
I15
sg6
I15
ssS'SoftMax_0.2'
p1561
(dp1562
g5
I11
sg6
I19
ssg21
(dp1563
g5
I19
sg6
I11
ssS'SoftMax_0.8'
p1564
(dp1565
g5
I24
sg6
I6
ssssI2
(dp1566
I21
(dp1567
S'Epsilon_Greedy_0.4'
p1568
(dp1569
g5
I8
sg6
I22
ssS'SoftMax_0.1'
p1570
(dp1571
g5
I10
sg6
I20
ssS'Epsilon_Greedy_0.1'
p1572
(dp1573
g5
I11
sg6
I19
ssS'Epsilon_Greedy_0.2'
p1574
(dp1575
g5
I3
sg6
I27
ssS'Epsilon_Greedy_0.3'
p1576
(dp1577
g5
I5
sg6
I25
ssS'SoftMax_1.0'
p1578
(dp1579
g5
I26
sg6
I4
ssS'SoftMax_0.4'
p1580
(dp1581
g5
I19
sg6
I11
ssS'SoftMax_0.2'
p1582
(dp1583
g5
I30
sg6
I0
ssg21
(dp1584
g5
I19
sg6
I11
ssS'SoftMax_0.8'
p1585
(dp1586
g5
I24
sg6
I6
sssI22
(dp1587
S'Epsilon_Greedy_0.4'
p1588
(dp1589
g5
I7
sg6
I23
ssS'SoftMax_0.1'
p1590
(dp1591
g5
I15
sg6
I15
ssS'Epsilon_Greedy_0.1'
p1592
(dp1593
g5
I5
sg6
I25
ssS'Epsilon_Greedy_0.2'
p1594
(dp1595
g5
I4
sg6
I26
ssS'Epsilon_Greedy_0.3'
p1596
(dp1597
g5
I12
sg6
I18
ssS'SoftMax_1.0'
p1598
(dp1599
g5
I24
sg6
I6
ssS'SoftMax_0.4'
p1600
(dp1601
g5
I18
sg6
I12
ssS'SoftMax_0.2'
p1602
(dp1603
g5
I23
sg6
I7
ssg21
(dp1604
g5
I14
sg6
I16
ssS'SoftMax_0.8'
p1605
(dp1606
g5
I18
sg6
I12
sssI23
(dp1607
S'Epsilon_Greedy_0.4'
p1608
(dp1609
g5
I10
sg6
I20
ssS'SoftMax_0.1'
p1610
(dp1611
g5
I9
sg6
I21
ssS'Epsilon_Greedy_0.1'
p1612
(dp1613
g5
I8
sg6
I22
ssS'Epsilon_Greedy_0.2'
p1614
(dp1615
g5
I5
sg6
I25
ssS'Epsilon_Greedy_0.3'
p1616
(dp1617
g5
I8
sg6
I22
ssS'SoftMax_1.0'
p1618
(dp1619
g5
I19
sg6
I11
ssS'SoftMax_0.4'
p1620
(dp1621
g5
I20
sg6
I10
ssS'SoftMax_0.2'
p1622
(dp1623
g5
I23
sg6
I7
ssg21
(dp1624
g5
I11
sg6
I19
ssS'SoftMax_0.8'
p1625
(dp1626
g5
I19
sg6
I11
sssI24
(dp1627
S'Epsilon_Greedy_0.4'
p1628
(dp1629
g5
I2
sg6
I28
ssS'SoftMax_0.1'
p1630
(dp1631
g5
I7
sg6
I23
ssS'Epsilon_Greedy_0.1'
p1632
(dp1633
g5
I8
sg6
I22
ssS'Epsilon_Greedy_0.2'
p1634
(dp1635
g5
I2
sg6
I28
ssS'Epsilon_Greedy_0.3'
p1636
(dp1637
g5
I10
sg6
I20
ssS'SoftMax_1.0'
p1638
(dp1639
g5
I22
sg6
I8
ssS'SoftMax_0.4'
p1640
(dp1641
g5
I20
sg6
I10
ssS'SoftMax_0.2'
p1642
(dp1643
g5
I22
sg6
I8
ssg21
(dp1644
g5
I7
sg6
I23
ssS'SoftMax_0.8'
p1645
(dp1646
g5
I23
sg6
I7
sssI25
(dp1647
S'Epsilon_Greedy_0.4'
p1648
(dp1649
g5
I10
sg6
I20
ssS'SoftMax_0.1'
p1650
(dp1651
g5
I6
sg6
I24
ssS'Epsilon_Greedy_0.1'
p1652
(dp1653
g5
I6
sg6
I24
ssS'Epsilon_Greedy_0.2'
p1654
(dp1655
g5
I3
sg6
I27
ssS'Epsilon_Greedy_0.3'
p1656
(dp1657
g5
I12
sg6
I18
ssS'SoftMax_1.0'
p1658
(dp1659
g5
I29
sg6
I1
ssS'SoftMax_0.4'
p1660
(dp1661
g5
I22
sg6
I8
ssS'SoftMax_0.2'
p1662
(dp1663
g5
I28
sg6
I2
ssg21
(dp1664
g5
I15
sg6
I15
ssS'SoftMax_0.8'
p1665
(dp1666
g5
I22
sg6
I8
sssI26
(dp1667
S'Epsilon_Greedy_0.4'
p1668
(dp1669
g5
I6
sg6
I24
ssS'SoftMax_0.1'
p1670
(dp1671
g5
I9
sg6
I21
ssS'Epsilon_Greedy_0.1'
p1672
(dp1673
g5
I7
sg6
I23
ssS'Epsilon_Greedy_0.2'
p1674
(dp1675
g5
I4
sg6
I26
ssS'Epsilon_Greedy_0.3'
p1676
(dp1677
g5
I9
sg6
I21
ssS'SoftMax_1.0'
p1678
(dp1679
g5
I22
sg6
I8
ssS'SoftMax_0.4'
p1680
(dp1681
g5
I17
sg6
I13
ssS'SoftMax_0.2'
p1682
(dp1683
g5
I28
sg6
I2
ssg21
(dp1684
g5
I19
sg6
I11
ssS'SoftMax_0.8'
p1685
(dp1686
g5
I22
sg6
I8
sssI27
(dp1687
S'Epsilon_Greedy_0.4'
p1688
(dp1689
g5
I10
sg6
I20
ssS'SoftMax_0.1'
p1690
(dp1691
g5
I16
sg6
I14
ssS'Epsilon_Greedy_0.1'
p1692
(dp1693
g5
I10
sg6
I20
ssS'Epsilon_Greedy_0.2'
p1694
(dp1695
g5
I4
sg6
I26
ssS'Epsilon_Greedy_0.3'
p1696
(dp1697
g5
I7
sg6
I23
ssS'SoftMax_1.0'
p1698
(dp1699
g5
I21
sg6
I9
ssS'SoftMax_0.4'
p1700
(dp1701
g5
I24
sg6
I6
ssS'SoftMax_0.2'
p1702
(dp1703
g5
I22
sg6
I8
ssg21
(dp1704
g5
I22
sg6
I8
ssS'SoftMax_0.8'
p1705
(dp1706
g5
I20
sg6
I10
sssI28
(dp1707
S'Epsilon_Greedy_0.4'
p1708
(dp1709
g5
I4
sg6
I26
ssS'SoftMax_0.1'
p1710
(dp1711
g5
I14
sg6
I16
ssS'Epsilon_Greedy_0.1'
p1712
(dp1713
g5
I8
sg6
I22
ssS'Epsilon_Greedy_0.2'
p1714
(dp1715
g5
I3
sg6
I27
ssS'Epsilon_Greedy_0.3'
p1716
(dp1717
g5
I11
sg6
I19
ssS'SoftMax_1.0'
p1718
(dp1719
g5
I22
sg6
I8
ssS'SoftMax_0.4'
p1720
(dp1721
g5
I17
sg6
I13
ssS'SoftMax_0.2'
p1722
(dp1723
g5
I27
sg6
I3
ssg21
(dp1724
g5
I25
sg6
I5
ssS'SoftMax_0.8'
p1725
(dp1726
g5
I26
sg6
I4
sssI29
(dp1727
S'Epsilon_Greedy_0.4'
p1728
(dp1729
g5
I7
sg6
I23
ssS'SoftMax_0.1'
p1730
(dp1731
g5
I3
sg6
I27
ssS'Epsilon_Greedy_0.1'
p1732
(dp1733
g5
I7
sg6
I23
ssS'Epsilon_Greedy_0.2'
p1734
(dp1735
g5
I4
sg6
I26
ssS'Epsilon_Greedy_0.3'
p1736
(dp1737
g5
I12
sg6
I18
ssS'SoftMax_1.0'
p1738
(dp1739
g5
I24
sg6
I6
ssS'SoftMax_0.4'
p1740
(dp1741
g5
I20
sg6
I10
ssS'SoftMax_0.2'
p1742
(dp1743
g5
I26
sg6
I4
ssg21
(dp1744
g5
I25
sg6
I5
ssS'SoftMax_0.8'
p1745
(dp1746
g5
I19
sg6
I11
sssI30
(dp1747
S'Epsilon_Greedy_0.4'
p1748
(dp1749
g5
I6
sg6
I24
ssS'SoftMax_0.1'
p1750
(dp1751
g5
I7
sg6
I23
ssS'Epsilon_Greedy_0.1'
p1752
(dp1753
g5
I8
sg6
I22
ssS'Epsilon_Greedy_0.2'
p1754
(dp1755
g5
I6
sg6
I24
ssS'Epsilon_Greedy_0.3'
p1756
(dp1757
g5
I11
sg6
I19
ssS'SoftMax_1.0'
p1758
(dp1759
g5
I22
sg6
I8
ssS'SoftMax_0.4'
p1760
(dp1761
g5
I19
sg6
I11
ssS'SoftMax_0.2'
p1762
(dp1763
g5
I27
sg6
I3
ssg21
(dp1764
g5
I26
sg6
I4
ssS'SoftMax_0.8'
p1765
(dp1766
g5
I19
sg6
I11
sssI31
(dp1767
S'Epsilon_Greedy_0.4'
p1768
(dp1769
g5
I10
sg6
I20
ssS'SoftMax_0.1'
p1770
(dp1771
g5
I12
sg6
I18
ssS'Epsilon_Greedy_0.1'
p1772
(dp1773
g5
I2
sg6
I28
ssS'Epsilon_Greedy_0.2'
p1774
(dp1775
g5
I6
sg6
I24
ssS'Epsilon_Greedy_0.3'
p1776
(dp1777
g5
I8
sg6
I22
ssS'SoftMax_1.0'
p1778
(dp1779
g5
I24
sg6
I6
ssS'SoftMax_0.4'
p1780
(dp1781
g5
I16
sg6
I14
ssS'SoftMax_0.2'
p1782
(dp1783
g5
I28
sg6
I2
ssg21
(dp1784
g5
I25
sg6
I5
ssS'SoftMax_0.8'
p1785
(dp1786
g5
I19
sg6
I11
sssI32
(dp1787
S'Epsilon_Greedy_0.4'
p1788
(dp1789
g5
I6
sg6
I24
ssS'SoftMax_0.1'
p1790
(dp1791
g5
I14
sg6
I16
ssS'Epsilon_Greedy_0.1'
p1792
(dp1793
g5
I7
sg6
I23
ssS'Epsilon_Greedy_0.2'
p1794
(dp1795
g5
I6
sg6
I24
ssS'Epsilon_Greedy_0.3'
p1796
(dp1797
g5
I11
sg6
I19
ssS'SoftMax_1.0'
p1798
(dp1799
g5
I19
sg6
I11
ssS'SoftMax_0.4'
p1800
(dp1801
g5
I16
sg6
I14
ssS'SoftMax_0.2'
p1802
(dp1803
g5
I26
sg6
I4
ssg21
(dp1804
g5
I24
sg6
I6
ssS'SoftMax_0.8'
p1805
(dp1806
g5
I21
sg6
I9
sssI33
(dp1807
S'Epsilon_Greedy_0.4'
p1808
(dp1809
g5
I6
sg6
I24
ssS'SoftMax_0.1'
p1810
(dp1811
g5
I12
sg6
I18
ssS'Epsilon_Greedy_0.1'
p1812
(dp1813
g5
I6
sg6
I24
ssS'Epsilon_Greedy_0.2'
p1814
(dp1815
g5
I7
sg6
I23
ssS'Epsilon_Greedy_0.3'
p1816
(dp1817
g5
I10
sg6
I20
ssS'SoftMax_1.0'
p1818
(dp1819
g5
I23
sg6
I7
ssS'SoftMax_0.4'
p1820
(dp1821
g5
I18
sg6
I12
ssS'SoftMax_0.2'
p1822
(dp1823
g5
I25
sg6
I5
ssg21
(dp1824
g5
I20
sg6
I10
ssS'SoftMax_0.8'
p1825
(dp1826
g5
I19
sg6
I11
sssI34
(dp1827
S'Epsilon_Greedy_0.4'
p1828
(dp1829
g5
I8
sg6
I22
ssS'SoftMax_0.1'
p1830
(dp1831
g5
I11
sg6
I19
ssS'Epsilon_Greedy_0.1'
p1832
(dp1833
g5
I10
sg6
I20
ssS'Epsilon_Greedy_0.2'
p1834
(dp1835
g5
I7
sg6
I23
ssS'Epsilon_Greedy_0.3'
p1836
(dp1837
g5
I9
sg6
I21
ssS'SoftMax_1.0'
p1838
(dp1839
g5
I25
sg6
I5
ssS'SoftMax_0.4'
p1840
(dp1841
g5
I17
sg6
I13
ssS'SoftMax_0.2'
p1842
(dp1843
g5
I20
sg6
I10
ssg21
(dp1844
g5
I20
sg6
I10
ssS'SoftMax_0.8'
p1845
(dp1846
g5
I24
sg6
I6
sssI35
(dp1847
S'Epsilon_Greedy_0.4'
p1848
(dp1849
g5
I9
sg6
I21
ssS'SoftMax_0.1'
p1850
(dp1851
g5
I13
sg6
I17
ssS'Epsilon_Greedy_0.1'
p1852
(dp1853
g5
I6
sg6
I24
ssS'Epsilon_Greedy_0.2'
p1854
(dp1855
g5
I6
sg6
I24
ssS'Epsilon_Greedy_0.3'
p1856
(dp1857
g5
I10
sg6
I20
ssS'SoftMax_1.0'
p1858
(dp1859
g5
I24
sg6
I6
ssS'SoftMax_0.4'
p1860
(dp1861
g5
I20
sg6
I10
ssS'SoftMax_0.2'
p1862
(dp1863
g5
I22
sg6
I8
ssg21
(dp1864
g5
I22
sg6
I8
ssS'SoftMax_0.8'
p1865
(dp1866
g5
I18
sg6
I12
sssI36
(dp1867
S'Epsilon_Greedy_0.4'
p1868
(dp1869
g5
I8
sg6
I22
ssS'SoftMax_0.1'
p1870
(dp1871
g5
I8
sg6
I22
ssS'Epsilon_Greedy_0.1'
p1872
(dp1873
g5
I10
sg6
I20
ssS'Epsilon_Greedy_0.2'
p1874
(dp1875
g5
I5
sg6
I25
ssS'Epsilon_Greedy_0.3'
p1876
(dp1877
g5
I10
sg6
I20
ssS'SoftMax_1.0'
p1878
(dp1879
g5
I24
sg6
I6
ssS'SoftMax_0.4'
p1880
(dp1881
g5
I21
sg6
I9
ssS'SoftMax_0.2'
p1882
(dp1883
g5
I26
sg6
I4
ssg21
(dp1884
g5
I21
sg6
I9
ssS'SoftMax_0.8'
p1885
(dp1886
g5
I20
sg6
I10
sssI37
(dp1887
S'Epsilon_Greedy_0.4'
p1888
(dp1889
g5
I7
sg6
I23
ssS'SoftMax_0.1'
p1890
(dp1891
g5
I10
sg6
I20
ssS'Epsilon_Greedy_0.1'
p1892
(dp1893
g5
I9
sg6
I21
ssS'Epsilon_Greedy_0.2'
p1894
(dp1895
g5
I3
sg6
I27
ssS'Epsilon_Greedy_0.3'
p1896
(dp1897
g5
I10
sg6
I20
ssS'SoftMax_1.0'
p1898
(dp1899
g5
I26
sg6
I4
ssS'SoftMax_0.4'
p1900
(dp1901
g5
I15
sg6
I15
ssS'SoftMax_0.2'
p1902
(dp1903
g5
I27
sg6
I3
ssg21
(dp1904
g5
I17
sg6
I13
ssS'SoftMax_0.8'
p1905
(dp1906
g5
I19
sg6
I11
sssI38
(dp1907
S'Epsilon_Greedy_0.4'
p1908
(dp1909
g5
I4
sg6
I26
ssS'SoftMax_0.1'
p1910
(dp1911
g5
I8
sg6
I22
ssS'Epsilon_Greedy_0.1'
p1912
(dp1913
g5
I8
sg6
I22
ssS'Epsilon_Greedy_0.2'
p1914
(dp1915
g5
I9
sg6
I21
ssS'Epsilon_Greedy_0.3'
p1916
(dp1917
g5
I6
sg6
I24
ssS'SoftMax_1.0'
p1918
(dp1919
g5
I23
sg6
I7
ssS'SoftMax_0.4'
p1920
(dp1921
g5
I16
sg6
I14
ssS'SoftMax_0.2'
p1922
(dp1923
g5
I23
sg6
I7
ssg21
(dp1924
g5
I22
sg6
I8
ssS'SoftMax_0.8'
p1925
(dp1926
g5
I19
sg6
I11
sssI39
(dp1927
S'Epsilon_Greedy_0.4'
p1928
(dp1929
g5
I10
sg6
I20
ssS'SoftMax_0.1'
p1930
(dp1931
g5
I11
sg6
I19
ssS'Epsilon_Greedy_0.1'
p1932
(dp1933
g5
I6
sg6
I24
ssS'Epsilon_Greedy_0.2'
p1934
(dp1935
g5
I5
sg6
I25
ssS'Epsilon_Greedy_0.3'
p1936
(dp1937
g5
I8
sg6
I22
ssS'SoftMax_1.0'
p1938
(dp1939
g5
I20
sg6
I10
ssS'SoftMax_0.4'
p1940
(dp1941
g5
I20
sg6
I10
ssS'SoftMax_0.2'
p1942
(dp1943
g5
I25
sg6
I5
ssg21
(dp1944
g5
I20
sg6
I10
ssS'SoftMax_0.8'
p1945
(dp1946
g5
I22
sg6
I8
sssI40
(dp1947
S'Epsilon_Greedy_0.4'
p1948
(dp1949
g5
I11
sg6
I19
ssS'SoftMax_0.1'
p1950
(dp1951
g5
I4
sg6
I26
ssS'Epsilon_Greedy_0.1'
p1952
(dp1953
g5
I8
sg6
I22
ssS'Epsilon_Greedy_0.2'
p1954
(dp1955
g5
I3
sg6
I27
ssS'Epsilon_Greedy_0.3'
p1956
(dp1957
g5
I10
sg6
I20
ssS'SoftMax_1.0'
p1958
(dp1959
g5
I22
sg6
I8
ssS'SoftMax_0.4'
p1960
(dp1961
g5
I20
sg6
I10
ssS'SoftMax_0.2'
p1962
(dp1963
g5
I26
sg6
I4
ssg21
(dp1964
g5
I22
sg6
I8
ssS'SoftMax_0.8'
p1965
(dp1966
g5
I22
sg6
I8
sssI41
(dp1967
S'Epsilon_Greedy_0.4'
p1968
(dp1969
g5
I10
sg6
I20
ssS'SoftMax_0.1'
p1970
(dp1971
g5
I12
sg6
I18
ssS'Epsilon_Greedy_0.1'
p1972
(dp1973
g5
I8
sg6
I22
ssS'Epsilon_Greedy_0.2'
p1974
(dp1975
g5
I5
sg6
I25
ssS'Epsilon_Greedy_0.3'
p1976
(dp1977
g5
I8
sg6
I22
ssS'SoftMax_1.0'
p1978
(dp1979
g5
I24
sg6
I6
ssS'SoftMax_0.4'
p1980
(dp1981
g5
I15
sg6
I15
ssS'SoftMax_0.2'
p1982
(dp1983
g5
I26
sg6
I4
ssg21
(dp1984
g5
I28
sg6
I2
ssS'SoftMax_0.8'
p1985
(dp1986
g5
I23
sg6
I7
sssI42
(dp1987
S'Epsilon_Greedy_0.4'
p1988
(dp1989
g5
I9
sg6
I21
ssS'SoftMax_0.1'
p1990
(dp1991
g5
I11
sg6
I19
ssS'Epsilon_Greedy_0.1'
p1992
(dp1993
g5
I7
sg6
I23
ssS'Epsilon_Greedy_0.2'
p1994
(dp1995
g5
I3
sg6
I27
ssS'Epsilon_Greedy_0.3'
p1996
(dp1997
g5
I12
sg6
I18
ssS'SoftMax_1.0'
p1998
(dp1999
g5
I25
sg6
I5
ssS'SoftMax_0.4'
p2000
(dp2001
g5
I21
sg6
I9
ssS'SoftMax_0.2'
p2002
(dp2003
g5
I22
sg6
I8
ssg21
(dp2004
g5
I22
sg6
I8
ssS'SoftMax_0.8'
p2005
(dp2006
g5
I17
sg6
I13
sssI43
(dp2007
S'Epsilon_Greedy_0.4'
p2008
(dp2009
g5
I4
sg6
I26
ssS'SoftMax_0.1'
p2010
(dp2011
g5
I9
sg6
I21
ssS'Epsilon_Greedy_0.1'
p2012
(dp2013
g5
I9
sg6
I21
ssS'Epsilon_Greedy_0.2'
p2014
(dp2015
g5
I7
sg6
I23
ssS'Epsilon_Greedy_0.3'
p2016
(dp2017
g5
I11
sg6
I19
ssS'SoftMax_1.0'
p2018
(dp2019
g5
I19
sg6
I11
ssS'SoftMax_0.4'
p2020
(dp2021
g5
I16
sg6
I14
ssS'SoftMax_0.2'
p2022
(dp2023
g5
I22
sg6
I8
ssg21
(dp2024
g5
I23
sg6
I7
ssS'SoftMax_0.8'
p2025
(dp2026
g5
I16
sg6
I14
sssI44
(dp2027
S'Epsilon_Greedy_0.4'
p2028
(dp2029
g5
I9
sg6
I21
ssS'SoftMax_0.1'
p2030
(dp2031
g5
I8
sg6
I22
ssS'Epsilon_Greedy_0.1'
p2032
(dp2033
g5
I7
sg6
I23
ssS'Epsilon_Greedy_0.2'
p2034
(dp2035
g5
I3
sg6
I27
ssS'Epsilon_Greedy_0.3'
p2036
(dp2037
g5
I8
sg6
I22
ssS'SoftMax_1.0'
p2038
(dp2039
g5
I21
sg6
I9
ssS'SoftMax_0.4'
p2040
(dp2041
g5
I18
sg6
I12
ssS'SoftMax_0.2'
p2042
(dp2043
g5
I25
sg6
I5
ssg21
(dp2044
g5
I23
sg6
I7
ssS'SoftMax_0.8'
p2045
(dp2046
g5
I20
sg6
I10
sssI45
(dp2047
S'Epsilon_Greedy_0.4'
p2048
(dp2049
g5
I9
sg6
I21
ssS'SoftMax_0.1'
p2050
(dp2051
g5
I8
sg6
I22
ssS'Epsilon_Greedy_0.1'
p2052
(dp2053
g5
I3
sg6
I27
ssS'Epsilon_Greedy_0.2'
p2054
(dp2055
g5
I7
sg6
I23
ssS'Epsilon_Greedy_0.3'
p2056
(dp2057
g5
I11
sg6
I19
ssS'SoftMax_1.0'
p2058
(dp2059
g5
I22
sg6
I8
ssS'SoftMax_0.4'
p2060
(dp2061
g5
I11
sg6
I19
ssS'SoftMax_0.2'
p2062
(dp2063
g5
I28
sg6
I2
ssg21
(dp2064
g5
I25
sg6
I5
ssS'SoftMax_0.8'
p2065
(dp2066
g5
I22
sg6
I8
sssI46
(dp2067
S'Epsilon_Greedy_0.4'
p2068
(dp2069
g5
I4
sg6
I26
ssS'SoftMax_0.1'
p2070
(dp2071
g5
I8
sg6
I22
ssS'Epsilon_Greedy_0.1'
p2072
(dp2073
g5
I14
sg6
I16
ssS'Epsilon_Greedy_0.2'
p2074
(dp2075
g5
I7
sg6
I23
ssS'Epsilon_Greedy_0.3'
p2076
(dp2077
g5
I12
sg6
I18
ssS'SoftMax_1.0'
p2078
(dp2079
g5
I21
sg6
I9
ssS'SoftMax_0.4'
p2080
(dp2081
g5
I13
sg6
I17
ssS'SoftMax_0.2'
p2082
(dp2083
g5
I24
sg6
I6
ssg21
(dp2084
g5
I16
sg6
I14
ssS'SoftMax_0.8'
p2085
(dp2086
g5
I19
sg6
I11
sssI47
(dp2087
S'Epsilon_Greedy_0.4'
p2088
(dp2089
g5
I6
sg6
I24
ssS'SoftMax_0.1'
p2090
(dp2091
g5
I8
sg6
I22
ssS'Epsilon_Greedy_0.1'
p2092
(dp2093
g5
I14
sg6
I16
ssS'Epsilon_Greedy_0.2'
p2094
(dp2095
g5
I4
sg6
I26
ssS'Epsilon_Greedy_0.3'
p2096
(dp2097
g5
I5
sg6
I25
ssS'SoftMax_1.0'
p2098
(dp2099
g5
I17
sg6
I13
ssS'SoftMax_0.4'
p2100
(dp2101
g5
I21
sg6
I9
ssS'SoftMax_0.2'
p2102
(dp2103
g5
I24
sg6
I6
ssg21
(dp2104
g5
I18
sg6
I12
ssS'SoftMax_0.8'
p2105
(dp2106
g5
I22
sg6
I8
sssI48
(dp2107
S'Epsilon_Greedy_0.4'
p2108
(dp2109
g5
I9
sg6
I21
ssS'SoftMax_0.1'
p2110
(dp2111
g5
I9
sg6
I21
ssS'Epsilon_Greedy_0.1'
p2112
(dp2113
g5
I7
sg6
I23
ssS'Epsilon_Greedy_0.2'
p2114
(dp2115
g5
I4
sg6
I26
ssS'Epsilon_Greedy_0.3'
p2116
(dp2117
g5
I8
sg6
I22
ssS'SoftMax_1.0'
p2118
(dp2119
g5
I25
sg6
I5
ssS'SoftMax_0.4'
p2120
(dp2121
g5
I20
sg6
I10
ssS'SoftMax_0.2'
p2122
(dp2123
g5
I18
sg6
I12
ssg21
(dp2124
g5
I20
sg6
I10
ssS'SoftMax_0.8'
p2125
(dp2126
g5
I21
sg6
I9
sssI49
(dp2127
S'Epsilon_Greedy_0.4'
p2128
(dp2129
g5
I8
sg6
I22
ssS'SoftMax_0.1'
p2130
(dp2131
g5
I9
sg6
I21
ssS'Epsilon_Greedy_0.1'
p2132
(dp2133
g5
I4
sg6
I26
ssS'Epsilon_Greedy_0.2'
p2134
(dp2135
g5
I3
sg6
I27
ssS'Epsilon_Greedy_0.3'
p2136
(dp2137
g5
I8
sg6
I22
ssS'SoftMax_1.0'
p2138
(dp2139
g5
I24
sg6
I6
ssS'SoftMax_0.4'
p2140
(dp2141
g5
I18
sg6
I12
ssS'SoftMax_0.2'
p2142
(dp2143
g5
I21
sg6
I9
ssg21
(dp2144
g5
I13
sg6
I17
ssS'SoftMax_0.8'
p2145
(dp2146
g5
I21
sg6
I9
sssI50
(dp2147
S'Epsilon_Greedy_0.4'
p2148
(dp2149
g5
I9
sg6
I21
ssS'SoftMax_0.1'
p2150
(dp2151
g5
I6
sg6
I24
ssS'Epsilon_Greedy_0.1'
p2152
(dp2153
g5
I3
sg6
I27
ssS'Epsilon_Greedy_0.2'
p2154
(dp2155
g5
I7
sg6
I23
ssS'Epsilon_Greedy_0.3'
p2156
(dp2157
g5
I9
sg6
I21
ssS'SoftMax_1.0'
p2158
(dp2159
g5
I20
sg6
I10
ssS'SoftMax_0.4'
p2160
(dp2161
g5
I15
sg6
I15
ssS'SoftMax_0.2'
p2162
(dp2163
g5
I23
sg6
I7
ssg21
(dp2164
g5
I18
sg6
I12
ssS'SoftMax_0.8'
p2165
(dp2166
g5
I18
sg6
I12
sssI51
(dp2167
S'Epsilon_Greedy_0.4'
p2168
(dp2169
g5
I7
sg6
I23
ssS'SoftMax_0.1'
p2170
(dp2171
g5
I6
sg6
I24
ssS'Epsilon_Greedy_0.1'
p2172
(dp2173
g5
I6
sg6
I24
ssS'Epsilon_Greedy_0.2'
p2174
(dp2175
g5
I3
sg6
I27
ssS'Epsilon_Greedy_0.3'
p2176
(dp2177
g5
I6
sg6
I24
ssS'SoftMax_1.0'
p2178
(dp2179
g5
I21
sg6
I9
ssS'SoftMax_0.4'
p2180
(dp2181
g5
I18
sg6
I12
ssS'SoftMax_0.2'
p2182
(dp2183
g5
I22
sg6
I8
ssg21
(dp2184
g5
I21
sg6
I9
ssS'SoftMax_0.8'
p2185
(dp2186
g5
I17
sg6
I13
sssI52
(dp2187
S'Epsilon_Greedy_0.4'
p2188
(dp2189
g5
I6
sg6
I24
ssS'SoftMax_0.1'
p2190
(dp2191
g5
I7
sg6
I23
ssS'Epsilon_Greedy_0.1'
p2192
(dp2193
g5
I4
sg6
I26
ssS'Epsilon_Greedy_0.2'
p2194
(dp2195
g5
I3
sg6
I27
ssS'Epsilon_Greedy_0.3'
p2196
(dp2197
g5
I6
sg6
I24
ssS'SoftMax_1.0'
p2198
(dp2199
g5
I23
sg6
I7
ssS'SoftMax_0.4'
p2200
(dp2201
g5
I20
sg6
I10
ssS'SoftMax_0.2'
p2202
(dp2203
g5
I17
sg6
I13
ssg21
(dp2204
g5
I19
sg6
I11
ssS'SoftMax_0.8'
p2205
(dp2206
g5
I17
sg6
I13
sssI53
(dp2207
S'Epsilon_Greedy_0.4'
p2208
(dp2209
g5
I5
sg6
I25
ssS'SoftMax_0.1'
p2210
(dp2211
g5
I9
sg6
I21
ssS'Epsilon_Greedy_0.1'
p2212
(dp2213
g5
I8
sg6
I22
ssS'Epsilon_Greedy_0.2'
p2214
(dp2215
g5
I3
sg6
I27
ssS'Epsilon_Greedy_0.3'
p2216
(dp2217
g5
I8
sg6
I22
ssS'SoftMax_1.0'
p2218
(dp2219
g5
I26
sg6
I4
ssS'SoftMax_0.4'
p2220
(dp2221
g5
I21
sg6
I9
ssS'SoftMax_0.2'
p2222
(dp2223
g5
I17
sg6
I13
ssg21
(dp2224
g5
I22
sg6
I8
ssS'SoftMax_0.8'
p2225
(dp2226
g5
I17
sg6
I13
sssI54
(dp2227
S'Epsilon_Greedy_0.4'
p2228
(dp2229
g5
I5
sg6
I25
ssS'SoftMax_0.1'
p2230
(dp2231
g5
I14
sg6
I16
ssS'Epsilon_Greedy_0.1'
p2232
(dp2233
g5
I8
sg6
I22
ssS'Epsilon_Greedy_0.2'
p2234
(dp2235
g5
I4
sg6
I26
ssS'Epsilon_Greedy_0.3'
p2236
(dp2237
g5
I8
sg6
I22
ssS'SoftMax_1.0'
p2238
(dp2239
g5
I22
sg6
I8
ssS'SoftMax_0.4'
p2240
(dp2241
g5
I16
sg6
I14
ssS'SoftMax_0.2'
p2242
(dp2243
g5
I22
sg6
I8
ssg21
(dp2244
g5
I12
sg6
I18
ssS'SoftMax_0.8'
p2245
(dp2246
g5
I19
sg6
I11
sssI55
(dp2247
S'Epsilon_Greedy_0.4'
p2248
(dp2249
g5
I1
sg6
I29
ssS'SoftMax_0.1'
p2250
(dp2251
g5
I7
sg6
I23
ssS'Epsilon_Greedy_0.1'
p2252
(dp2253
g5
I11
sg6
I19
ssS'Epsilon_Greedy_0.2'
p2254
(dp2255
g5
I5
sg6
I25
ssS'Epsilon_Greedy_0.3'
p2256
(dp2257
g5
I6
sg6
I24
ssS'SoftMax_1.0'
p2258
(dp2259
g5
I22
sg6
I8
ssS'SoftMax_0.4'
p2260
(dp2261
g5
I15
sg6
I15
ssS'SoftMax_0.2'
p2262
(dp2263
g5
I27
sg6
I3
ssg21
(dp2264
g5
I21
sg6
I9
ssS'SoftMax_0.8'
p2265
(dp2266
g5
I22
sg6
I8
sssI56
(dp2267
S'Epsilon_Greedy_0.4'
p2268
(dp2269
g5
I9
sg6
I21
ssS'SoftMax_0.1'
p2270
(dp2271
g5
I8
sg6
I22
ssS'Epsilon_Greedy_0.1'
p2272
(dp2273
g5
I9
sg6
I21
ssS'Epsilon_Greedy_0.2'
p2274
(dp2275
g5
I4
sg6
I26
ssS'Epsilon_Greedy_0.3'
p2276
(dp2277
g5
I8
sg6
I22
ssS'SoftMax_1.0'
p2278
(dp2279
g5
I23
sg6
I7
ssS'SoftMax_0.4'
p2280
(dp2281
g5
I14
sg6
I16
ssS'SoftMax_0.2'
p2282
(dp2283
g5
I23
sg6
I7
ssg21
(dp2284
g5
I18
sg6
I12
ssS'SoftMax_0.8'
p2285
(dp2286
g5
I19
sg6
I11
sssI57
(dp2287
S'Epsilon_Greedy_0.4'
p2288
(dp2289
g5
I5
sg6
I25
ssS'SoftMax_0.1'
p2290
(dp2291
g5
I8
sg6
I22
ssS'Epsilon_Greedy_0.1'
p2292
(dp2293
g5
I8
sg6
I22
ssS'Epsilon_Greedy_0.2'
p2294
(dp2295
g5
I5
sg6
I25
ssS'Epsilon_Greedy_0.3'
p2296
(dp2297
g5
I7
sg6
I23
ssS'SoftMax_1.0'
p2298
(dp2299
g5
I22
sg6
I8
ssS'SoftMax_0.4'
p2300
(dp2301
g5
I12
sg6
I18
ssS'SoftMax_0.2'
p2302
(dp2303
g5
I24
sg6
I6
ssg21
(dp2304
g5
I17
sg6
I13
ssS'SoftMax_0.8'
p2305
(dp2306
g5
I24
sg6
I6
sssI58
(dp2307
S'Epsilon_Greedy_0.4'
p2308
(dp2309
g5
I3
sg6
I27
ssS'SoftMax_0.1'
p2310
(dp2311
g5
I7
sg6
I23
ssS'Epsilon_Greedy_0.1'
p2312
(dp2313
g5
I7
sg6
I23
ssS'Epsilon_Greedy_0.2'
p2314
(dp2315
g5
I4
sg6
I26
ssS'Epsilon_Greedy_0.3'
p2316
(dp2317
g5
I13
sg6
I17
ssS'SoftMax_1.0'
p2318
(dp2319
g5
I22
sg6
I8
ssS'SoftMax_0.4'
p2320
(dp2321
g5
I17
sg6
I13
ssS'SoftMax_0.2'
p2322
(dp2323
g5
I18
sg6
I12
ssg21
(dp2324
g5
I18
sg6
I12
ssS'SoftMax_0.8'
p2325
(dp2326
g5
I20
sg6
I10
sssI59
(dp2327
S'Epsilon_Greedy_0.4'
p2328
(dp2329
g5
I3
sg6
I27
ssS'SoftMax_0.1'
p2330
(dp2331
g5
I8
sg6
I22
ssS'Epsilon_Greedy_0.1'
p2332
(dp2333
g5
I10
sg6
I20
ssS'Epsilon_Greedy_0.2'
p2334
(dp2335
g5
I3
sg6
I27
ssS'Epsilon_Greedy_0.3'
p2336
(dp2337
g5
I15
sg6
I15
ssS'SoftMax_1.0'
p2338
(dp2339
g5
I24
sg6
I6
ssS'SoftMax_0.4'
p2340
(dp2341
g5
I18
sg6
I12
ssS'SoftMax_0.2'
p2342
(dp2343
g5
I23
sg6
I7
ssg21
(dp2344
g5
I18
sg6
I12
ssS'SoftMax_0.8'
p2345
(dp2346
g5
I17
sg6
I13
ssss.